

Microchip MPLAB XC8 Assembler V3.00 build 20241204225717 
                                                                                               Tue Jun 24 11:10:52 2025

Microchip MPLAB XC8 C Compiler v3.00 (Free license) build 20241204225717 Og1 
     1                           	processor	18F4550
     2                           	fnconf	rparam,??,?,0
     3                           	pagewidth 120
     4                           	opt	flic
     5                           	psect	idataBANK0,global,class=CODE,space=0,delta=1,noexec
     6                           	psect	smallconst,global,reloc=2,class=SMALLCONST,space=0,delta=1,noexec
     7                           	psect	cinit,global,reloc=2,class=CODE,space=0,delta=1
     8                           	psect	bssBANK0,global,class=BANK0,space=1,delta=1,lowdata,noexec
     9                           	psect	dataBANK0,global,class=BANK0,space=1,delta=1,lowdata,noexec
    10                           	psect	bssBANK1,global,class=BANK1,space=1,delta=1,lowdata,noexec
    11                           	psect	cstackBANK0,global,class=BANK0,space=1,delta=1,lowdata,noexec
    12                           	psect	cstackCOMRAM,global,class=COMRAM,space=1,delta=1,lowdata,noexec
    13                           	psect	text0,global,reloc=2,class=CODE,space=0,delta=1
    14                           	psect	text1,global,reloc=2,class=CODE,space=0,delta=1,group=3
    15                           	psect	text2,global,reloc=2,class=CODE,space=0,delta=1,group=1
    16                           	psect	text3,global,reloc=2,class=CODE,space=0,delta=1,group=1
    17                           	psect	text4,global,reloc=2,class=CODE,space=0,delta=1,group=1
    18                           	psect	text5,global,reloc=2,class=CODE,space=0,delta=1,group=1
    19                           	psect	text6,global,reloc=2,class=CODE,space=0,delta=1,group=3
    20                           	psect	text7,global,reloc=2,class=CODE,space=0,delta=1,group=3
    21                           	psect	text8,global,reloc=2,class=CODE,space=0,delta=1,group=3
    22                           	psect	text9,global,reloc=2,class=CODE,space=0,delta=1,group=3
    23                           	psect	text10,global,reloc=2,class=CODE,space=0,delta=1,group=3
    24                           	psect	text11,global,reloc=2,class=CODE,space=0,delta=1,group=2
    25                           	psect	text12,global,reloc=2,class=CODE,space=0,delta=1,group=2
    26                           	psect	text13,global,reloc=2,class=CODE,space=0,delta=1,group=2
    27                           	psect	text14,global,reloc=2,class=CODE,space=0,delta=1,group=2
    28                           	psect	text15,global,reloc=2,class=CODE,space=0,delta=1,group=2
    29                           	psect	text16,global,reloc=2,class=CODE,space=0,delta=1,group=2
    30                           	psect	text17,global,reloc=2,class=CODE,space=0,delta=1,group=1
    31                           	psect	text18,global,reloc=2,class=CODE,space=0,delta=1,group=1
    32                           	psect	text19,global,reloc=2,class=CODE,space=0,delta=1,group=3
    33                           	psect	text20,global,reloc=2,class=CODE,space=0,delta=1,group=3
    34                           	psect	text21,global,reloc=2,class=CODE,space=0,delta=1,group=3
    35                           	psect	text22,global,reloc=2,class=CODE,space=0,delta=1,group=3
    36                           	psect	text23,global,reloc=2,class=CODE,space=0,delta=1,group=2
    37                           	psect	text24,global,reloc=2,class=CODE,space=0,delta=1,group=2
    38                           	psect	text25,global,reloc=2,class=CODE,space=0,delta=1
    39                           	psect	text26,global,reloc=2,class=CODE,space=0,delta=1
    40                           	psect	text27,global,reloc=2,class=CODE,space=0,delta=1
    41                           	psect	text28,global,reloc=2,class=CODE,space=0,delta=1,group=2
    42                           	psect	text29,global,reloc=2,class=CODE,space=0,delta=1,group=2
    43                           	psect	text30,global,reloc=2,class=CODE,space=0,delta=1,group=2
    44                           	psect	text31,global,reloc=2,class=CODE,space=0,delta=1
    45                           	psect	text32,global,reloc=2,class=CODE,space=0,delta=1
    46                           	psect	text33,global,reloc=2,class=CODE,space=0,delta=1
    47                           	psect	text34,global,reloc=2,class=CODE,space=0,delta=1
    48                           	psect	text35,global,reloc=2,class=CODE,space=0,delta=1
    49                           	psect	intcode,global,reloc=2,class=CODE,space=0,delta=1
    50                           	psect	intcode_body,global,reloc=2,class=CODE,space=0,delta=1
    51                           	psect	intsave_regs,global,class=BIGRAM,space=1,delta=1,noexec
    52                           	psect	rparam,global,class=COMRAM,space=1,delta=1,noexec
    53                           	psect	temp,global,ovrld,common,class=COMRAM,space=1,delta=1,lowdata
    54                           	psect	config,global,abs,ovrld,class=CONFIG,space=4,delta=1,noexec
    55   000000                     
    56                           ; Generated 17/10/2023 GMT
    57                           ; 
    58                           ; Copyright © 2023, Microchip Technology Inc. and its subsidiaries ("Microchip")
    59                           ; All rights reserved.
    60                           ; 
    61                           ; This software is developed by Microchip Technology Inc. and its subsidiaries ("Microch
      +                          ip").
    62                           ; 
    63                           ; Redistribution and use in source and binary forms, with or without modification, are
    64                           ; permitted provided that the following conditions are met:
    65                           ; 
    66                           ;     1. Redistributions of source code must retain the above copyright notice, this lis
      +                          t of
    67                           ;        conditions and the following disclaimer.
    68                           ; 
    69                           ;     2. Redistributions in binary form must reproduce the above copyright notice, this 
      +                          list
    70                           ;        of conditions and the following disclaimer in the documentation and/or other
    71                           ;        materials provided with the distribution. Publication is not required when
    72                           ;        this file is used in an embedded application.
    73                           ; 
    74                           ;     3. Microchip's name may not be used to endorse or promote products derived from th
      +                          is
    75                           ;        software without specific prior written permission.
    76                           ; 
    77                           ; THIS SOFTWARE IS PROVIDED BY MICROCHIP "AS IS" AND ANY EXPRESS OR IMPLIED WARRANTIES,
    78                           ; INCLUDING, BUT NOT LIMITED TO, THE IMPLIED WARRANTIES OF MERCHANTABILITY AND FITNESS F
      +                          OR
    79                           ; PURPOSE ARE DISCLAIMED.  IN NO EVENT SHALL MICROCHIP BE LIABLE FOR ANY DIRECT, INDIREC
      +                          T,
    80                           ; INCIDENTAL, SPECIAL, EXEMPLARY, OR CONSEQUENTIAL DAMAGES (INCLUDING BUT NOT LIMITED TO
    81                           ; PROCUREMENT OF SUBSTITUTE GOODS OR SERVICES; LOSS OF USE, DATA OR PROFITS; OR BUSINESS
    82                           ; INTERRUPTION) HOWSOEVER CAUSED AND ON ANY THEORY OF LIABILITY, WHETHER IN CONTRACT, ST
      +                          RICT
    83                           ; LIABILITY, OR TORT (INCLUDING NEGLIGENCE OR OTHERWISE) ARISING IN ANY WAY OUT OF THE U
      +                          SE OF
    84                           ; THIS SOFTWARE, EVEN IF ADVISED OF THE POSSIBILITY OF SUCH DAMAGE.
    85                           ; 
    86                           ; 
    87                           ; Code-generator required, PIC18F4550 Definitions
    88                           ; 
    89                           ; SFR Addresses
    90   000FE0                     bsr             equ	4064
    91   000FE9                     fsr0            equ	4073
    92   000FEA                     fsr0h           equ	4074
    93   000FE9                     fsr0l           equ	4073
    94   000FE1                     fsr1            equ	4065
    95   000FE2                     fsr1h           equ	4066
    96   000FE1                     fsr1l           equ	4065
    97   000FD9                     fsr2            equ	4057
    98   000FDA                     fsr2h           equ	4058
    99   000FD9                     fsr2l           equ	4057
   100   000FEF                     indf0           equ	4079
   101   000FE7                     indf1           equ	4071
   102   000FDF                     indf2           equ	4063
   103   000FF2                     intcon          equ	4082
   104   000000                     nvmcon          equ	0
   105   000FF9                     pcl             equ	4089
   106   000FFA                     pclath          equ	4090
   107   000FFB                     pclatu          equ	4091
   108   000FEB                     plusw0          equ	4075
   109   000FE3                     plusw1          equ	4067
   110   000FDB                     plusw2          equ	4059
   111   000FED                     postdec0        equ	4077
   112   000FE5                     postdec1        equ	4069
   113   000FDD                     postdec2        equ	4061
   114   000FEE                     postinc0        equ	4078
   115   000FE6                     postinc1        equ	4070
   116   000FDE                     postinc2        equ	4062
   117   000FEC                     preinc0         equ	4076
   118   000FE4                     preinc1         equ	4068
   119   000FDC                     preinc2         equ	4060
   120   000FF3                     prod            equ	4083
   121   000FF4                     prodh           equ	4084
   122   000FF3                     prodl           equ	4083
   123   000FD8                     status          equ	4056
   124   000FF5                     tablat          equ	4085
   125   000FF6                     tblptr          equ	4086
   126   000FF7                     tblptrh         equ	4087
   127   000FF6                     tblptrl         equ	4086
   128   000FF8                     tblptru         equ	4088
   129   000FFD                     tosl            equ	4093
   130   000FE8                     wreg            equ	4072
   131   000F62                     SPPDATA         equ	3938	;# 
   132   000F63                     SPPCFG          equ	3939	;# 
   133   000F64                     SPPEPS          equ	3940	;# 
   134   000F65                     SPPCON          equ	3941	;# 
   135   000F66                     UFRM            equ	3942	;# 
   136   000F66                     UFRML           equ	3942	;# 
   137   000F67                     UFRMH           equ	3943	;# 
   138   000F68                     UIR             equ	3944	;# 
   139   000F69                     UIE             equ	3945	;# 
   140   000F6A                     UEIR            equ	3946	;# 
   141   000F6B                     UEIE            equ	3947	;# 
   142   000F6C                     USTAT           equ	3948	;# 
   143   000F6D                     UCON            equ	3949	;# 
   144   000F6E                     UADDR           equ	3950	;# 
   145   000F6F                     UCFG            equ	3951	;# 
   146   000F70                     UEP0            equ	3952	;# 
   147   000F71                     UEP1            equ	3953	;# 
   148   000F72                     UEP2            equ	3954	;# 
   149   000F73                     UEP3            equ	3955	;# 
   150   000F74                     UEP4            equ	3956	;# 
   151   000F75                     UEP5            equ	3957	;# 
   152   000F76                     UEP6            equ	3958	;# 
   153   000F77                     UEP7            equ	3959	;# 
   154   000F78                     UEP8            equ	3960	;# 
   155   000F79                     UEP9            equ	3961	;# 
   156   000F7A                     UEP10           equ	3962	;# 
   157   000F7B                     UEP11           equ	3963	;# 
   158   000F7C                     UEP12           equ	3964	;# 
   159   000F7D                     UEP13           equ	3965	;# 
   160   000F7E                     UEP14           equ	3966	;# 
   161   000F7F                     UEP15           equ	3967	;# 
   162   000F80                     PORTA           equ	3968	;# 
   163   000F81                     PORTB           equ	3969	;# 
   164   000F82                     PORTC           equ	3970	;# 
   165   000F83                     PORTD           equ	3971	;# 
   166   000F84                     PORTE           equ	3972	;# 
   167   000F89                     LATA            equ	3977	;# 
   168   000F8A                     LATB            equ	3978	;# 
   169   000F8B                     LATC            equ	3979	;# 
   170   000F8C                     LATD            equ	3980	;# 
   171   000F8D                     LATE            equ	3981	;# 
   172   000F92                     TRISA           equ	3986	;# 
   173   000F92                     DDRA            equ	3986	;# 
   174   000F93                     TRISB           equ	3987	;# 
   175   000F93                     DDRB            equ	3987	;# 
   176   000F94                     TRISC           equ	3988	;# 
   177   000F94                     DDRC            equ	3988	;# 
   178   000F95                     TRISD           equ	3989	;# 
   179   000F95                     DDRD            equ	3989	;# 
   180   000F96                     TRISE           equ	3990	;# 
   181   000F96                     DDRE            equ	3990	;# 
   182   000F9B                     OSCTUNE         equ	3995	;# 
   183   000F9D                     PIE1            equ	3997	;# 
   184   000F9E                     PIR1            equ	3998	;# 
   185   000F9F                     IPR1            equ	3999	;# 
   186   000FA0                     PIE2            equ	4000	;# 
   187   000FA1                     PIR2            equ	4001	;# 
   188   000FA2                     IPR2            equ	4002	;# 
   189   000FA6                     EECON1          equ	4006	;# 
   190   000FA7                     EECON2          equ	4007	;# 
   191   000FA8                     EEDATA          equ	4008	;# 
   192   000FA9                     EEADR           equ	4009	;# 
   193   000FAB                     RCSTA           equ	4011	;# 
   194   000FAB                     RCSTA1          equ	4011	;# 
   195   000FAC                     TXSTA           equ	4012	;# 
   196   000FAC                     TXSTA1          equ	4012	;# 
   197   000FAD                     TXREG           equ	4013	;# 
   198   000FAD                     TXREG1          equ	4013	;# 
   199   000FAE                     RCREG           equ	4014	;# 
   200   000FAE                     RCREG1          equ	4014	;# 
   201   000FAF                     SPBRG           equ	4015	;# 
   202   000FAF                     SPBRG1          equ	4015	;# 
   203   000FB0                     SPBRGH          equ	4016	;# 
   204   000FB1                     T3CON           equ	4017	;# 
   205   000FB2                     TMR3            equ	4018	;# 
   206   000FB2                     TMR3L           equ	4018	;# 
   207   000FB3                     TMR3H           equ	4019	;# 
   208   000FB4                     CMCON           equ	4020	;# 
   209   000FB5                     CVRCON          equ	4021	;# 
   210   000FB6                     ECCP1AS         equ	4022	;# 
   211   000FB6                     CCP1AS          equ	4022	;# 
   212   000FB7                     ECCP1DEL        equ	4023	;# 
   213   000FB7                     CCP1DEL         equ	4023	;# 
   214   000FB8                     BAUDCON         equ	4024	;# 
   215   000FB8                     BAUDCTL         equ	4024	;# 
   216   000FBA                     CCP2CON         equ	4026	;# 
   217   000FBB                     CCPR2           equ	4027	;# 
   218   000FBB                     CCPR2L          equ	4027	;# 
   219   000FBC                     CCPR2H          equ	4028	;# 
   220   000FBD                     CCP1CON         equ	4029	;# 
   221   000FBD                     ECCP1CON        equ	4029	;# 
   222   000FBE                     CCPR1           equ	4030	;# 
   223   000FBE                     CCPR1L          equ	4030	;# 
   224   000FBF                     CCPR1H          equ	4031	;# 
   225   000FC0                     ADCON2          equ	4032	;# 
   226   000FC1                     ADCON1          equ	4033	;# 
   227   000FC2                     ADCON0          equ	4034	;# 
   228   000FC3                     ADRES           equ	4035	;# 
   229   000FC3                     ADRESL          equ	4035	;# 
   230   000FC4                     ADRESH          equ	4036	;# 
   231   000FC5                     SSPCON2         equ	4037	;# 
   232   000FC6                     SSPCON1         equ	4038	;# 
   233   000FC7                     SSPSTAT         equ	4039	;# 
   234   000FC8                     SSPADD          equ	4040	;# 
   235   000FC9                     SSPBUF          equ	4041	;# 
   236   000FCA                     T2CON           equ	4042	;# 
   237   000FCB                     PR2             equ	4043	;# 
   238   000FCB                     MEMCON          equ	4043	;# 
   239   000FCC                     TMR2            equ	4044	;# 
   240   000FCD                     T1CON           equ	4045	;# 
   241   000FCE                     TMR1            equ	4046	;# 
   242   000FCE                     TMR1L           equ	4046	;# 
   243   000FCF                     TMR1H           equ	4047	;# 
   244   000FD0                     RCON            equ	4048	;# 
   245   000FD1                     WDTCON          equ	4049	;# 
   246   000FD2                     HLVDCON         equ	4050	;# 
   247   000FD2                     LVDCON          equ	4050	;# 
   248   000FD3                     OSCCON          equ	4051	;# 
   249   000FD5                     T0CON           equ	4053	;# 
   250   000FD6                     TMR0            equ	4054	;# 
   251   000FD6                     TMR0L           equ	4054	;# 
   252   000FD7                     TMR0H           equ	4055	;# 
   253   000FD8                     STATUS          equ	4056	;# 
   254   000FD9                     FSR2            equ	4057	;# 
   255   000FD9                     FSR2L           equ	4057	;# 
   256   000FDA                     FSR2H           equ	4058	;# 
   257   000FDB                     PLUSW2          equ	4059	;# 
   258   000FDC                     PREINC2         equ	4060	;# 
   259   000FDD                     POSTDEC2        equ	4061	;# 
   260   000FDE                     POSTINC2        equ	4062	;# 
   261   000FDF                     INDF2           equ	4063	;# 
   262   000FE0                     BSR             equ	4064	;# 
   263   000FE1                     FSR1            equ	4065	;# 
   264   000FE1                     FSR1L           equ	4065	;# 
   265   000FE2                     FSR1H           equ	4066	;# 
   266   000FE3                     PLUSW1          equ	4067	;# 
   267   000FE4                     PREINC1         equ	4068	;# 
   268   000FE5                     POSTDEC1        equ	4069	;# 
   269   000FE6                     POSTINC1        equ	4070	;# 
   270   000FE7                     INDF1           equ	4071	;# 
   271   000FE8                     WREG            equ	4072	;# 
   272   000FE9                     FSR0            equ	4073	;# 
   273   000FE9                     FSR0L           equ	4073	;# 
   274   000FEA                     FSR0H           equ	4074	;# 
   275   000FEB                     PLUSW0          equ	4075	;# 
   276   000FEC                     PREINC0         equ	4076	;# 
   277   000FED                     POSTDEC0        equ	4077	;# 
   278   000FEE                     POSTINC0        equ	4078	;# 
   279   000FEF                     INDF0           equ	4079	;# 
   280   000FF0                     INTCON3         equ	4080	;# 
   281   000FF1                     INTCON2         equ	4081	;# 
   282   000FF2                     INTCON          equ	4082	;# 
   283   000FF3                     PROD            equ	4083	;# 
   284   000FF3                     PRODL           equ	4083	;# 
   285   000FF4                     PRODH           equ	4084	;# 
   286   000FF5                     TABLAT          equ	4085	;# 
   287   000FF6                     TBLPTR          equ	4086	;# 
   288   000FF6                     TBLPTRL         equ	4086	;# 
   289   000FF7                     TBLPTRH         equ	4087	;# 
   290   000FF8                     TBLPTRU         equ	4088	;# 
   291   000FF9                     PCLAT           equ	4089	;# 
   292   000FF9                     PC              equ	4089	;# 
   293   000FF9                     PCL             equ	4089	;# 
   294   000FFA                     PCLATH          equ	4090	;# 
   295   000FFB                     PCLATU          equ	4091	;# 
   296   000FFC                     STKPTR          equ	4092	;# 
   297   000FFD                     TOS             equ	4093	;# 
   298   000FFD                     TOSL            equ	4093	;# 
   299   000FFE                     TOSH            equ	4094	;# 
   300   000FFF                     TOSU            equ	4095	;# 
   301                           
   302                           	psect	idataBANK0
   303   00396C                     __pidataBANK0:
   304                           	callstack 0
   305                           
   306                           ;initializer for Inicializa_LCD@ini
   307   00396C  38                 	db	56
   308   00396D  38                 	db	56
   309   00396E  38                 	db	56
   310   00396F  0C                 	db	12
   311   003970  06                 	db	6
   312   003971  01                 	db	1
   313   003972  00                 	db	0
   314   000F95                     _TRISDbits      set	3989
   315   000F83                     _PORTDbits      set	3971
   316   000F8C                     _LATDbits       set	3980
   317   000FF1                     _INTCON2bits    set	4081
   318   000F8B                     _LATCbits       set	3979
   319   000F8C                     _LATD           set	3980
   320   000F82                     _PORTCbits      set	3970
   321   000F94                     _TRISCbits      set	3988
   322   000F93                     _TRISBbits      set	3987
   323   000F92                     _TRISAbits      set	3986
   324   000FF2                     _INTCONbits     set	4082
   325   000FC3                     _ADRESL         set	4035
   326   000FC4                     _ADRESH         set	4036
   327   000FC2                     _ADCON0bits     set	4034
   328   000FC0                     _ADCON2         set	4032
   329   000FC2                     _ADCON0         set	4034
   330   000F96                     _TRISE          set	3990
   331   000F95                     _TRISD          set	3989
   332   000F84                     _PORTE          set	3972
   333   000FC1                     _ADCON1         set	4033
   334   000F83                     _PORTD          set	3971
   335   000F84                     _PORTEbits      set	3972
   336                           
   337                           	psect	smallconst
   338   000800                     __psmallconst:
   339                           	callstack 0
   340   000800  00                 	db	0
   341   000801                     STR_6:
   342   000801  20                 	db	32
   343   000802  20                 	db	32
   344   000803  20                 	db	32
   345   000804  20                 	db	32
   346   000805  20                 	db	32
   347   000806  20                 	db	32
   348   000807  20                 	db	32
   349   000808  20                 	db	32
   350   000809  20                 	db	32
   351   00080A  20                 	db	32
   352   00080B  20                 	db	32
   353   00080C  20                 	db	32
   354   00080D  20                 	db	32
   355   00080E  20                 	db	32
   356   00080F  20                 	db	32
   357   000810  20                 	db	32
   358   000811  00                 	db	0
   359   000812                     STR_5:
   360   000812  54                 	db	84	;'T'
   361   000813  65                 	db	101	;'e'
   362   000814  6D                 	db	109	;'m'
   363   000815  70                 	db	112	;'p'
   364   000816  3A                 	db	58	;':'
   365   000817  20                 	db	32
   366   000818  25                 	db	37
   367   000819  32                 	db	50	;'2'
   368   00081A  2E                 	db	46
   369   00081B  31                 	db	49	;'1'
   370   00081C  66                 	db	102	;'f'
   371   00081D  20                 	db	32
   372   00081E  43                 	db	67	;'C'
   373   00081F  00                 	db	0
   374   000820                     STR_9:
   375   000820  47                 	db	71	;'G'
   376   000821  61                 	db	97	;'a'
   377   000822  73                 	db	115	;'s'
   378   000823  20                 	db	32
   379   000824  44                 	db	68	;'D'
   380   000825  65                 	db	101	;'e'
   381   000826  74                 	db	116	;'t'
   382   000827  65                 	db	101	;'e'
   383   000828  63                 	db	99	;'c'
   384   000829  74                 	db	116	;'t'
   385   00082A  61                 	db	97	;'a'
   386   00082B  64                 	db	100	;'d'
   387   00082C  6F                 	db	111	;'o'
   388   00082D  00                 	db	0
   389   00082E                     STR_7:
   390   00082E  41                 	db	65	;'A'
   391   00082F  6C                 	db	108	;'l'
   392   000830  65                 	db	101	;'e'
   393   000831  72                 	db	114	;'r'
   394   000832  74                 	db	116	;'t'
   395   000833  61                 	db	97	;'a'
   396   000834  3A                 	db	58	;':'
   397   000835  20                 	db	32
   398   000836  47                 	db	71	;'G'
   399   000837  61                 	db	97	;'a'
   400   000838  73                 	db	115	;'s'
   401   000839  21                 	db	33
   402   00083A  00                 	db	0
   403   00083B                     STR_1:
   404   00083B  49                 	db	73	;'I'
   405   00083C  6E                 	db	110	;'n'
   406   00083D  69                 	db	105	;'i'
   407   00083E  63                 	db	99	;'c'
   408   00083F  69                 	db	105	;'i'
   409   000840  61                 	db	97	;'a'
   410   000841  6E                 	db	110	;'n'
   411   000842  64                 	db	100	;'d'
   412   000843  6F                 	db	111	;'o'
   413   000844  2E                 	db	46
   414   000845  2E                 	db	46
   415   000846  2E                 	db	46
   416   000847  00                 	db	0
   417   000848                     STR_15:
   418   000848  54                 	db	84	;'T'
   419   000849  65                 	db	101	;'e'
   420   00084A  6D                 	db	109	;'m'
   421   00084B  70                 	db	112	;'p'
   422   00084C  3A                 	db	58	;':'
   423   00084D  20                 	db	32
   424   00084E  4E                 	db	78	;'N'
   425   00084F  6F                 	db	111	;'o'
   426   000850  72                 	db	114	;'r'
   427   000851  6D                 	db	109	;'m'
   428   000852  61                 	db	97	;'a'
   429   000853  6C                 	db	108	;'l'
   430   000854  00                 	db	0
   431   000855                     STR_2:
   432   000855  53                 	db	83	;'S'
   433   000856  65                 	db	101	;'e'
   434   000857  6E                 	db	110	;'n'
   435   000858  73                 	db	115	;'s'
   436   000859  6F                 	db	111	;'o'
   437   00085A  72                 	db	114	;'r'
   438   00085B  20                 	db	32
   439   00085C  4D                 	db	77	;'M'
   440   00085D  51                 	db	81	;'Q'
   441   00085E  2D                 	db	45
   442   00085F  32                 	db	50	;'2'
   443   000860  00                 	db	0
   444   000861                     STR_13:
   445   000861  54                 	db	84	;'T'
   446   000862  65                 	db	101	;'e'
   447   000863  6D                 	db	109	;'m'
   448   000864  70                 	db	112	;'p'
   449   000865  3A                 	db	58	;':'
   450   000866  20                 	db	32
   451   000867  41                 	db	65	;'A'
   452   000868  6C                 	db	108	;'l'
   453   000869  74                 	db	116	;'t'
   454   00086A  61                 	db	97	;'a'
   455   00086B  00                 	db	0
   456   00086C                     STR_4:
   457   00086C  41                 	db	65	;'A'
   458   00086D  44                 	db	68	;'D'
   459   00086E  43                 	db	67	;'C'
   460   00086F  3A                 	db	58	;':'
   461   000870  20                 	db	32
   462   000871  25                 	db	37
   463   000872  30                 	db	48	;'0'
   464   000873  34                 	db	52	;'4'
   465   000874  64                 	db	100	;'d'
   466   000875  00                 	db	0
   467   000876                     STR_11:
   468   000876  41                 	db	65	;'A'
   469   000877  72                 	db	114	;'r'
   470   000878  20                 	db	32
   471   000879  50                 	db	80	;'P'
   472   00087A  75                 	db	117	;'u'
   473   00087B  72                 	db	114	;'r'
   474   00087C  6F                 	db	111	;'o'
   475   00087D  00                 	db	0
   476   00087E                     STR_16:
   477   00087E  69                 	db	105	;'i'
   478   00087F  6E                 	db	110	;'n'
   479   000880  66                 	db	102	;'f'
   480   000881  00                 	db	0
   481   000882                     STR_19:
   482   000882  6E                 	db	110	;'n'
   483   000883  61                 	db	97	;'a'
   484   000884  6E                 	db	110	;'n'
   485   000885  00                 	db	0
   486   000882                     STR_20          equ	STR_19
   487   000882                     STR_21          equ	STR_19
   488   00087E                     STR_17          equ	STR_16
   489   00087E                     STR_18          equ	STR_16
   490   00083B                     STR_3           equ	STR_1
   491   000801                     STR_8           equ	STR_6
   492   000801                     STR_10          equ	STR_6
   493   000801                     STR_12          equ	STR_6
   494   000801                     STR_14          equ	STR_6
   495   000886  00                 	db	0	; dummy byte at the end
   496   000800                     __smallconst    set	__psmallconst
   497   000800                     __mediumconst   set	__psmallconst
   498   000002                     __activetblptr  equ	2
   499                           
   500                           ; #config settings
   501                           
   502                           	psect	cinit
   503   0036AA                     __pcinit:
   504                           	callstack 0
   505   0036AA                     start_initialization:
   506                           	callstack 0
   507   0036AA                     __initialization:
   508                           	callstack 0
   509                           
   510                           ; Initialize objects allocated to BANK0 (7 bytes)
   511                           ; load TBLPTR registers with __pidataBANK0
   512   0036AA  0E6C               	movlw	low __pidataBANK0
   513   0036AC  6EF6               	movwf	tblptrl,c
   514   0036AE  0E39               	movlw	high __pidataBANK0
   515   0036B0  6EF7               	movwf	tblptrh,c
   516   0036B2  0E00               	movlw	low (__pidataBANK0 shr (0+16))
   517   0036B4  6EF8               	movwf	tblptru,c
   518   0036B6  EE00  F0D0         	lfsr	0,__pdataBANK0
   519   0036BA  EE10 F007          	lfsr	1,7
   520   0036BE                     copy_data0:
   521   0036BE  0009               	tblrd		*+
   522   0036C0  CFF5 FFEE          	movff	tablat,postinc0
   523   0036C4  50E5               	movf	postdec1,w,c
   524   0036C6  50E1               	movf	fsr1l,w,c
   525   0036C8  E1FA               	bnz	copy_data0
   526                           
   527                           ; Clear objects allocated to BANK1 (80 bytes)
   528   0036CA  EE01  F000         	lfsr	0,__pbssBANK1
   529   0036CE  0E50               	movlw	80
   530   0036D0                     clear_0:
   531   0036D0  6AEE               	clrf	postinc0,c
   532   0036D2  06E8               	decf	wreg,f,c
   533   0036D4  E1FD               	bnz	clear_0
   534                           
   535                           ; Clear objects allocated to BANK0 (15 bytes)
   536   0036D6  EE00  F0C1         	lfsr	0,__pbssBANK0
   537   0036DA  0E0F               	movlw	15
   538   0036DC                     clear_1:
   539   0036DC  6AEE               	clrf	postinc0,c
   540   0036DE  06E8               	decf	wreg,f,c
   541   0036E0  E1FD               	bnz	clear_1
   542   0036E2                     end_of_initialization:
   543                           	callstack 0
   544   0036E2                     __end_of__initialization:
   545                           	callstack 0
   546   0036E2  905C               	bcf	int$flags,0,c	;clear compiler interrupt flag (level 1)
   547   0036E4  925C               	bcf	int$flags,1,c	;clear compiler interrupt flag (level 2)
   548   0036E6  0E00               	movlw	low (__Lmediumconst shr (0+16))
   549   0036E8  6EF8               	movwf	tblptru,c
   550   0036EA  0100               	movlb	0
   551   0036EC  EF6B  F009         	goto	_main	;jump to C main() function
   552                           
   553                           	psect	bssBANK0
   554   0000C1                     __pbssBANK0:
   555                           	callstack 0
   556   0000C1                     floorf@F521:
   557                           	callstack 0
   558   0000C1                     	ds	4
   559   0000C5                     ___fpclassifyf@F465:
   560                           	callstack 0
   561   0000C5                     	ds	4
   562   0000C9                     _width:
   563                           	callstack 0
   564   0000C9                     	ds	2
   565   0000CB                     _prec:
   566                           	callstack 0
   567   0000CB                     	ds	2
   568   0000CD                     _flags:
   569                           	callstack 0
   570   0000CD                     	ds	1
   571   0000CE                     _alarme_leve:
   572                           	callstack 0
   573   0000CE                     	ds	1
   574   0000CF                     _alarme_ativo:
   575                           	callstack 0
   576   0000CF                     	ds	1
   577                           
   578                           	psect	dataBANK0
   579   0000D0                     __pdataBANK0:
   580                           	callstack 0
   581   0000D0                     Inicializa_LCD@ini:
   582                           	callstack 0
   583   0000D0                     	ds	7
   584                           
   585                           	psect	bssBANK1
   586   000100                     __pbssBANK1:
   587                           	callstack 0
   588   000100                     _dbuf:
   589                           	callstack 0
   590   000100                     	ds	80
   591                           
   592                           	psect	cstackBANK0
   593   000060                     __pcstackBANK0:
   594                           	callstack 0
   595   000060                     efgtoa@ne:
   596                           	callstack 0
   597                           
   598                           ; 2 bytes @ 0x0
   599   000060                     	ds	2
   600   000062                     efgtoa@p:
   601                           	callstack 0
   602                           
   603                           ; 2 bytes @ 0x2
   604   000062                     	ds	2
   605   000064                     efgtoa@t:
   606                           	callstack 0
   607                           
   608                           ; 2 bytes @ 0x4
   609   000064                     	ds	2
   610   000066                     _efgtoa$1341:
   611                           	callstack 0
   612                           
   613                           ; 2 bytes @ 0x6
   614   000066                     	ds	2
   615   000068                     efgtoa@pp:
   616                           	callstack 0
   617                           
   618                           ; 1 bytes @ 0x8
   619   000068                     	ds	1
   620   000069                     efgtoa@mode:
   621                           	callstack 0
   622                           
   623                           ; 1 bytes @ 0x9
   624   000069                     	ds	1
   625   00006A                     efgtoa@nmode:
   626                           	callstack 0
   627                           
   628                           ; 1 bytes @ 0xA
   629   00006A                     	ds	1
   630   00006B                     efgtoa@d:
   631                           	callstack 0
   632                           
   633                           ; 2 bytes @ 0xB
   634   00006B                     	ds	2
   635   00006D                     efgtoa@m:
   636                           	callstack 0
   637                           
   638                           ; 2 bytes @ 0xD
   639   00006D                     	ds	2
   640   00006F                     efgtoa@e:
   641                           	callstack 0
   642                           
   643                           ; 2 bytes @ 0xF
   644   00006F                     	ds	2
   645   000071                     efgtoa@ou:
   646                           	callstack 0
   647                           
   648                           ; 4 bytes @ 0x11
   649   000071                     	ds	4
   650   000075                     efgtoa@w:
   651                           	callstack 0
   652                           
   653                           ; 2 bytes @ 0x15
   654   000075                     	ds	2
   655   000077                     efgtoa@h:
   656                           	callstack 0
   657                           
   658                           ; 4 bytes @ 0x17
   659   000077                     	ds	4
   660   00007B                     efgtoa@l:
   661                           	callstack 0
   662                           
   663                           ; 4 bytes @ 0x1B
   664   00007B                     	ds	4
   665   00007F                     efgtoa@i:
   666                           	callstack 0
   667                           
   668                           ; 2 bytes @ 0x1F
   669   00007F                     	ds	2
   670   000081                     efgtoa@sign:
   671                           	callstack 0
   672                           
   673                           ; 1 bytes @ 0x21
   674   000081                     	ds	1
   675   000082                     efgtoa@g:
   676                           	callstack 0
   677                           
   678                           ; 4 bytes @ 0x22
   679   000082                     	ds	4
   680   000086                     efgtoa@n:
   681                           	callstack 0
   682                           
   683                           ; 2 bytes @ 0x26
   684   000086                     	ds	2
   685   000088                     efgtoa@u:
   686                           	callstack 0
   687                           
   688                           ; 4 bytes @ 0x28
   689   000088                     	ds	4
   690   00008C                     vfpfcnvrt@done:
   691                           	callstack 0
   692                           
   693                           ; 1 bytes @ 0x2C
   694   00008C                     	ds	1
   695   00008D                     vfpfcnvrt@convarg:
   696                           	callstack 0
   697                           
   698                           ; 4 bytes @ 0x2D
   699   00008D                     	ds	4
   700   000091                     vfpfcnvrt@c:
   701                           	callstack 0
   702                           
   703                           ; 1 bytes @ 0x31
   704   000091                     	ds	1
   705   000092                     vfpfcnvrt@cp:
   706                           	callstack 0
   707                           
   708                           ; 1 bytes @ 0x32
   709   000092                     	ds	1
   710   000093                     ?_vfprintf:
   711                           	callstack 0
   712   000093                     vfprintf@fp:
   713                           	callstack 0
   714                           
   715                           ; 1 bytes @ 0x33
   716   000093                     	ds	1
   717   000094                     vfprintf@fmt:
   718                           	callstack 0
   719                           
   720                           ; 1 bytes @ 0x34
   721   000094                     	ds	1
   722   000095                     vfprintf@ap:
   723                           	callstack 0
   724                           
   725                           ; 1 bytes @ 0x35
   726   000095                     	ds	1
   727   000096                     ?_sprintf:
   728                           	callstack 0
   729   000096                     sprintf@s:
   730                           	callstack 0
   731                           
   732                           ; 1 bytes @ 0x36
   733   000096                     	ds	1
   734   000097                     sprintf@fmt:
   735                           	callstack 0
   736                           
   737                           ; 1 bytes @ 0x37
   738   000097                     	ds	5
   739   00009C                     sprintf@ap:
   740                           	callstack 0
   741                           
   742                           ; 1 bytes @ 0x3C
   743   00009C                     	ds	1
   744   00009D                     sprintf@f:
   745                           	callstack 0
   746                           
   747                           ; 11 bytes @ 0x3D
   748   00009D                     	ds	11
   749   0000A8                     main@lcd_buffer:
   750                           	callstack 0
   751                           
   752                           ; 17 bytes @ 0x48
   753   0000A8                     	ds	17
   754   0000B9                     main@adc_temp:
   755                           	callstack 0
   756                           
   757                           ; 2 bytes @ 0x59
   758   0000B9                     	ds	2
   759   0000BB                     main@temperatura:
   760                           	callstack 0
   761                           
   762                           ; 4 bytes @ 0x5B
   763   0000BB                     	ds	4
   764   0000BF                     main@adc_gas:
   765                           	callstack 0
   766                           
   767                           ; 2 bytes @ 0x5F
   768   0000BF                     	ds	2
   769                           
   770                           	psect	cstackCOMRAM
   771   000001                     __pcstackCOMRAM:
   772                           	callstack 0
   773   000001                     ?___fpclassifyf:
   774                           	callstack 0
   775   000001                     ?_read_adc_channel:
   776                           	callstack 0
   777   000001                     ?___awdiv:
   778                           	callstack 0
   779   000001                     ?___awmod:
   780                           	callstack 0
   781   000001                     ?_read_prec_or_width:
   782                           	callstack 0
   783   000001                     ?___fladd:
   784                           	callstack 0
   785   000001                     ?_labs:
   786                           	callstack 0
   787   000001                     ?___flneg:
   788                           	callstack 0
   789   000001                     ?___fltol:
   790                           	callstack 0
   791   000001                     ?___xxtofl:
   792                           	callstack 0
   793   000001                     read_prec_or_width@fmt:
   794                           	callstack 0
   795   000001                     ___awdiv@dividend:
   796                           	callstack 0
   797   000001                     ___awmod@dividend:
   798                           	callstack 0
   799   000001                     memcpy@d1:
   800                           	callstack 0
   801   000001                     fputc@c:
   802                           	callstack 0
   803   000001                     strcpy@dest:
   804                           	callstack 0
   805   000001                     ___fleq@ff1:
   806                           	callstack 0
   807   000001                     ___flneg@f1:
   808                           	callstack 0
   809   000001                     ___fltol@f1:
   810                           	callstack 0
   811   000001                     ___fladd@b:
   812                           	callstack 0
   813   000001                     ___xxtofl@val:
   814                           	callstack 0
   815   000001                     ___fpclassifyf@x:
   816                           	callstack 0
   817   000001                     labs@a:
   818                           	callstack 0
   819   000001                     ??_Comando_LCD:
   820   000001                     ??_Escreve_C_LCD:
   821   000001                     
   822                           ; 1 bytes @ 0x0
   823   000001                     	ds	1
   824   000002                     Comando_LCD@comando:
   825                           	callstack 0
   826   000002                     Escreve_C_LCD@caracter:
   827                           	callstack 0
   828   000002                     read_prec_or_width@ap:
   829                           	callstack 0
   830                           
   831                           ; 1 bytes @ 0x1
   832   000002                     	ds	1
   833   000003                     Posiciona_LCD@coluna:
   834                           	callstack 0
   835   000003                     fputc@fp:
   836                           	callstack 0
   837   000003                     strcpy@src:
   838                           	callstack 0
   839   000003                     Escreve_LCD@caracter:
   840                           	callstack 0
   841   000003                     ___awdiv@divisor:
   842                           	callstack 0
   843   000003                     ___awmod@divisor:
   844                           	callstack 0
   845   000003                     memcpy@s1:
   846                           	callstack 0
   847   000003                     ??_Inicializa_LCD:
   848   000003                     ??_read_adc_channel:
   849   000003                     ??_read_prec_or_width:
   850                           
   851                           ; 1 bytes @ 0x2
   852   000003                     	ds	1
   853   000004                     Posiciona_LCD@linha:
   854                           	callstack 0
   855   000004                     Inicializa_LCD@x:
   856                           	callstack 0
   857   000004                     ??_fputc:
   858   000004                     ??_strcpy:
   859   000004                     
   860                           ; 1 bytes @ 0x3
   861   000004                     	ds	1
   862   000005                     Posiciona_LCD@x:
   863                           	callstack 0
   864   000005                     read_adc_channel@channel:
   865                           	callstack 0
   866   000005                     ___awdiv@counter:
   867                           	callstack 0
   868   000005                     ___awmod@counter:
   869                           	callstack 0
   870   000005                     read_prec_or_width@c:
   871                           	callstack 0
   872   000005                     memcpy@n:
   873                           	callstack 0
   874   000005                     strcpy@d:
   875                           	callstack 0
   876   000005                     ___fleq@ff2:
   877                           	callstack 0
   878   000005                     ___fladd@a:
   879                           	callstack 0
   880   000005                     ??___fpclassifyf:
   881   000005                     ??_labs:
   882   000005                     ??_Escreve_LCD:
   883   000005                     ??___fltol:
   884   000005                     ??___xxtofl:
   885                           
   886                           ; 1 bytes @ 0x4
   887   000005                     	ds	1
   888   000006                     ___awdiv@sign:
   889                           	callstack 0
   890   000006                     ___awmod@sign:
   891                           	callstack 0
   892   000006                     read_prec_or_width@n:
   893                           	callstack 0
   894                           
   895                           ; 2 bytes @ 0x5
   896   000006                     	ds	1
   897   000007                     ?_abs:
   898                           	callstack 0
   899   000007                     memcpy@tmp:
   900                           	callstack 0
   901   000007                     ___awdiv@quotient:
   902                           	callstack 0
   903   000007                     abs@a:
   904                           	callstack 0
   905   000007                     
   906                           ; 1 bytes @ 0x6
   907   000007                     	ds	1
   908   000008                     memcpy@d:
   909                           	callstack 0
   910                           
   911                           ; 2 bytes @ 0x7
   912   000008                     	ds	1
   913   000009                     ___fltol@sign1:
   914                           	callstack 0
   915   000009                     ___xxtofl@sign:
   916                           	callstack 0
   917   000009                     ___fpclassifyf@e:
   918                           	callstack 0
   919   000009                     fputs@s:
   920                           	callstack 0
   921   000009                     ??___fladd:
   922   000009                     ??_abs:
   923   000009                     ??___fleq:
   924                           
   925                           ; 1 bytes @ 0x8
   926   000009                     	ds	1
   927   00000A                     ___fltol@exp1:
   928                           	callstack 0
   929   00000A                     ___xxtofl@exp:
   930                           	callstack 0
   931   00000A                     memcpy@s:
   932                           	callstack 0
   933                           
   934                           ; 2 bytes @ 0x9
   935   00000A                     	ds	1
   936   00000B                     fputs@fp:
   937                           	callstack 0
   938   00000B                     ___xxtofl@arg:
   939                           	callstack 0
   940   00000B                     ___fpclassifyf@u:
   941                           	callstack 0
   942                           
   943                           ; 4 bytes @ 0xA
   944   00000B                     	ds	1
   945   00000C                     fputs@c:
   946                           	callstack 0
   947   00000C                     
   948                           ; 1 bytes @ 0xB
   949   00000C                     	ds	1
   950   00000D                     ___fladd@signs:
   951                           	callstack 0
   952   00000D                     fputs@i:
   953                           	callstack 0
   954                           
   955                           ; 2 bytes @ 0xC
   956   00000D                     	ds	1
   957   00000E                     ___fladd@aexp:
   958                           	callstack 0
   959                           
   960                           ; 1 bytes @ 0xD
   961   00000E                     	ds	1
   962   00000F                     ?___fldiv:
   963                           	callstack 0
   964   00000F                     ___fladd@bexp:
   965                           	callstack 0
   966   00000F                     pad@fp:
   967                           	callstack 0
   968   00000F                     ___fldiv@b:
   969                           	callstack 0
   970                           
   971                           ; 4 bytes @ 0xE
   972   00000F                     	ds	1
   973   000010                     ___fladd@grs:
   974                           	callstack 0
   975   000010                     pad@buf:
   976                           	callstack 0
   977                           
   978                           ; 2 bytes @ 0xF
   979   000010                     	ds	2
   980   000012                     pad@p:
   981                           	callstack 0
   982                           
   983                           ; 2 bytes @ 0x11
   984   000012                     	ds	1
   985   000013                     ___fldiv@a:
   986                           	callstack 0
   987                           
   988                           ; 4 bytes @ 0x12
   989   000013                     	ds	1
   990   000014                     ??_pad:
   991                           
   992                           ; 1 bytes @ 0x13
   993   000014                     	ds	1
   994   000015                     pad@i:
   995                           	callstack 0
   996                           
   997                           ; 2 bytes @ 0x14
   998   000015                     	ds	2
   999   000017                     dtoa@fp:
  1000                           	callstack 0
  1001   000017                     ??___fldiv:
  1002                           
  1003                           ; 1 bytes @ 0x16
  1004   000017                     	ds	1
  1005   000018                     dtoa@d:
  1006                           	callstack 0
  1007                           
  1008                           ; 2 bytes @ 0x17
  1009   000018                     	ds	2
  1010   00001A                     _dtoa$1310:
  1011                           	callstack 0
  1012   00001A                     
  1013                           ; 1 bytes @ 0x19
  1014   00001A                     	ds	1
  1015   00001B                     ___fldiv@rem:
  1016                           	callstack 0
  1017                           
  1018                           ; 4 bytes @ 0x1A
  1019   00001B                     	ds	1
  1020   00001C                     dtoa@p:
  1021                           	callstack 0
  1022                           
  1023                           ; 2 bytes @ 0x1B
  1024   00001C                     	ds	2
  1025   00001E                     dtoa@w:
  1026                           	callstack 0
  1027                           
  1028                           ; 2 bytes @ 0x1D
  1029   00001E                     	ds	1
  1030   00001F                     ___fldiv@sign:
  1031                           	callstack 0
  1032                           
  1033                           ; 1 bytes @ 0x1E
  1034   00001F                     	ds	1
  1035   000020                     dtoa@s:
  1036                           	callstack 0
  1037   000020                     ___fldiv@new_exp:
  1038                           	callstack 0
  1039                           
  1040                           ; 2 bytes @ 0x1F
  1041   000020                     	ds	1
  1042   000021                     dtoa@i:
  1043                           	callstack 0
  1044                           
  1045                           ; 2 bytes @ 0x20
  1046   000021                     	ds	1
  1047   000022                     ___fldiv@grs:
  1048                           	callstack 0
  1049                           
  1050                           ; 4 bytes @ 0x21
  1051   000022                     	ds	4
  1052   000026                     ___fldiv@bexp:
  1053                           	callstack 0
  1054                           
  1055                           ; 1 bytes @ 0x25
  1056   000026                     	ds	1
  1057   000027                     ___fldiv@aexp:
  1058                           	callstack 0
  1059                           
  1060                           ; 1 bytes @ 0x26
  1061   000027                     	ds	1
  1062   000028                     ?___flmul:
  1063                           	callstack 0
  1064   000028                     ?_floorf:
  1065                           	callstack 0
  1066   000028                     ___flmul@b:
  1067                           	callstack 0
  1068   000028                     floorf@x:
  1069                           	callstack 0
  1070                           
  1071                           ; 4 bytes @ 0x27
  1072   000028                     	ds	4
  1073   00002C                     ___flmul@a:
  1074                           	callstack 0
  1075   00002C                     ??_floorf:
  1076                           
  1077                           ; 1 bytes @ 0x2B
  1078   00002C                     	ds	4
  1079   000030                     ??___flmul:
  1080                           
  1081                           ; 1 bytes @ 0x2F
  1082   000030                     	ds	2
  1083   000032                     floorf@m:
  1084                           	callstack 0
  1085                           
  1086                           ; 4 bytes @ 0x31
  1087   000032                     	ds	2
  1088   000034                     ___flmul@sign:
  1089                           	callstack 0
  1090                           
  1091                           ; 1 bytes @ 0x33
  1092   000034                     	ds	1
  1093   000035                     ___flmul@aexp:
  1094                           	callstack 0
  1095                           
  1096                           ; 1 bytes @ 0x34
  1097   000035                     	ds	1
  1098   000036                     floorf@e:
  1099                           	callstack 0
  1100   000036                     ___flmul@grs:
  1101                           	callstack 0
  1102                           
  1103                           ; 4 bytes @ 0x35
  1104   000036                     	ds	2
  1105   000038                     floorf@u:
  1106                           	callstack 0
  1107                           
  1108                           ; 4 bytes @ 0x37
  1109   000038                     	ds	2
  1110   00003A                     ___flmul@bexp:
  1111                           	callstack 0
  1112                           
  1113                           ; 1 bytes @ 0x39
  1114   00003A                     	ds	1
  1115   00003B                     ___flmul@prod:
  1116                           	callstack 0
  1117                           
  1118                           ; 4 bytes @ 0x3A
  1119   00003B                     	ds	4
  1120   00003F                     ___flmul@temp:
  1121                           	callstack 0
  1122                           
  1123                           ; 2 bytes @ 0x3E
  1124   00003F                     	ds	2
  1125   000041                     ?___flsub:
  1126                           	callstack 0
  1127   000041                     ?_calculaTemperaturaSimples:
  1128                           	callstack 0
  1129   000041                     calculaTemperaturaSimples@adc_valor:
  1130                           	callstack 0
  1131   000041                     ___flge@ff1:
  1132                           	callstack 0
  1133   000041                     ___flsub@b:
  1134                           	callstack 0
  1135                           
  1136                           ; 4 bytes @ 0x40
  1137   000041                     	ds	4
  1138   000045                     calculaTemperaturaSimples@temp:
  1139                           	callstack 0
  1140   000045                     ___flge@ff2:
  1141                           	callstack 0
  1142   000045                     ___flsub@a:
  1143                           	callstack 0
  1144   000045                     
  1145                           ; 1 bytes @ 0x44
  1146   000045                     	ds	4
  1147   000049                     ??___flge:
  1148                           
  1149                           ; 1 bytes @ 0x48
  1150   000049                     	ds	4
  1151   00004D                     efgtoa@fp:
  1152                           	callstack 0
  1153                           
  1154                           ; 1 bytes @ 0x4C
  1155   00004D                     	ds	1
  1156   00004E                     efgtoa@f:
  1157                           	callstack 0
  1158                           
  1159                           ; 4 bytes @ 0x4D
  1160   00004E                     	ds	4
  1161   000052                     efgtoa@c:
  1162                           	callstack 0
  1163                           
  1164                           ; 1 bytes @ 0x51
  1165   000052                     	ds	1
  1166   000053                     ??_efgtoa:
  1167                           
  1168                           ; 1 bytes @ 0x52
  1169   000053                     	ds	2
  1170   000055                     vfpfcnvrt@fp:
  1171                           	callstack 0
  1172                           
  1173                           ; 1 bytes @ 0x54
  1174   000055                     	ds	1
  1175   000056                     vfpfcnvrt@fmt:
  1176                           	callstack 0
  1177                           
  1178                           ; 1 bytes @ 0x55
  1179   000056                     	ds	1
  1180   000057                     vfpfcnvrt@ap:
  1181                           	callstack 0
  1182                           
  1183                           ; 1 bytes @ 0x56
  1184   000057                     	ds	1
  1185   000058                     ??_vfpfcnvrt:
  1186                           
  1187                           ; 1 bytes @ 0x57
  1188   000058                     	ds	1
  1189   000059                     vfprintf@cfmt:
  1190                           	callstack 0
  1191   000059                     
  1192                           ; 1 bytes @ 0x58
  1193   000059                     	ds	1
  1194   00005A                     ??_main:
  1195                           
  1196                           ; 1 bytes @ 0x59
  1197   00005A                     	ds	2
  1198                           
  1199 ;;
  1200 ;;Main: autosize = 0, tempsize = 2, incstack = 0, save=0
  1201 ;;
  1202 ;; *************** function _main *****************
  1203 ;; Defined at:
  1204 ;;		line 72 in file "main.c"
  1205 ;; Parameters:    Size  Location     Type
  1206 ;;		None
  1207 ;; Auto vars:     Size  Location     Type
  1208 ;;  temperatura     4   91[BANK0 ] float 
  1209 ;;  adc_gas         2   95[BANK0 ] unsigned int 
  1210 ;;  adc_temp        2   89[BANK0 ] unsigned int 
  1211 ;;  lcd_buffer     17   72[BANK0 ] unsigned char [17]
  1212 ;; Return value:  Size  Location     Type
  1213 ;;                  1    wreg      void 
  1214 ;; Registers used:
  1215 ;;		wreg, fsr1l, fsr1h, fsr2l, fsr2h, status,2, status,0, tblptrl, tblptrh, tblptru, prodl, prodh, cstack
  1216 ;; Tracked objects:
  1217 ;;		On entry : 0/0
  1218 ;;		On exit  : 0/0
  1219 ;;		Unchanged: 0/0
  1220 ;; Data sizes:     COMRAM   BANK0   BANK1   BANK2   BANK3   BANK4   BANK5   BANK6   BANK7
  1221 ;;      Params:         0       0       0       0       0       0       0       0       0
  1222 ;;      Locals:         0      25       0       0       0       0       0       0       0
  1223 ;;      Temps:          2       0       0       0       0       0       0       0       0
  1224 ;;      Totals:         2      25       0       0       0       0       0       0       0
  1225 ;;Total ram usage:       27 bytes
  1226 ;; Hardware stack levels required when called: 9
  1227 ;; This function calls:
  1228 ;;		_Escreve_LCD
  1229 ;;		_Inicializa_LCD
  1230 ;;		_Posiciona_LCD
  1231 ;;		___flge
  1232 ;;		_calculaTemperaturaSimples
  1233 ;;		_read_adc_channel
  1234 ;;		_setup_adc
  1235 ;;		_sprintf
  1236 ;; This function is called by:
  1237 ;;		Startup code after reset
  1238 ;; This function uses a non-reentrant model
  1239 ;;
  1240                           
  1241                           	psect	text0
  1242   0012D6                     __ptext0:
  1243                           	callstack 0
  1244   0012D6                     _main:
  1245                           	callstack 22
  1246   0012D6                     
  1247                           ;main.c: 75: ;main.c: 78:     INTCONbits.INT0IE = 1;
  1248   0012D6  8092               	bsf	146,0,c	;volatile
  1249                           
  1250                           ;main.c: 79:     INTCONbits.INT0IF = 0;
  1251   0012D8  8292               	bsf	146,1,c	;volatile
  1252   0012DA                     
  1253                           ;main.c: 82: 
  1254   0012DA  ECAF  F01C         	call	_setup_adc	;wreg free
  1255   0012DE                     
  1256                           ;main.c: 85:     Escreve_LCD("Sensor MQ-2");
  1257   0012DE  EC04  F01B         	call	_Inicializa_LCD	;wreg free
  1258   0012E2                     
  1259                           ;main.c: 87:     Escreve_LCD("Iniciando...");
  1260   0012E2  0E01               	movlw	1
  1261   0012E4  6E03               	movwf	Posiciona_LCD@coluna^0,c
  1262   0012E6  0E01               	movlw	1
  1263   0012E8  EC6A  F01A         	call	_Posiciona_LCD
  1264   0012EC                     
  1265                           ;main.c: 88: 
  1266   0012EC  0E3B               	movlw	low STR_1
  1267   0012EE  6E03               	movwf	Escreve_LCD@caracter^0,c
  1268   0012F0  5003               	movf	Escreve_LCD@caracter^0,w,c
  1269   0012F2  A4D8               	btfss	status,2,c
  1270   0012F4  0E08               	movlw	high __smallconst
  1271   0012F6  6E04               	movwf	(Escreve_LCD@caracter+1)^0,c
  1272   0012F8  ECA2  F01A         	call	_Escreve_LCD	;wreg free
  1273   0012FC                     
  1274                           ;main.c: 90: 
  1275   0012FC  8093               	bsf	147,0,c	;volatile
  1276   0012FE                     
  1277                           ;main.c: 91: 
  1278   0012FE  6A95               	clrf	149,c	;volatile
  1279   001300                     
  1280                           ;main.c: 92:     while(1){
  1281   001300  9494               	bcf	148,2,c	;volatile
  1282   001302                     
  1283                           ;main.c: 93:          if(alarme_leve){
  1284   001302  9294               	bcf	148,1,c	;volatile
  1285   001304                     
  1286                           ;main.c: 96:             LATCbits.LATC1 = !PORTCbits.RC1;
  1287   001304  9282               	bcf	130,1,c	;volatile
  1288   001306                     
  1289                           ;main.c: 97:             LATDbits.LATD7 = !PORTDbits.RD7;
  1290   001306  6A8C               	clrf	140,c	;volatile
  1291   001308                     
  1292                           ;main.c: 98:             LATDbits.LATD6 = !PORTDbits.RD6;
  1293   001308  948B               	bcf	139,2,c	;volatile
  1294   00130A                     
  1295                           ;main.c: 101:             LATDbits.LATD3 = !PORTDbits.RD3;
  1296   00130A  8EF2               	bsf	242,7,c	;volatile
  1297   00130C                     
  1298                           ;main.c: 102:             LATDbits.LATD2 = !PORTDbits.RD2;
  1299   00130C  88F2               	bsf	242,4,c	;volatile
  1300   00130E                     
  1301                           ;main.c: 103:             LATDbits.LATD1 = !PORTDbits.RD1;
  1302   00130E  92F2               	bcf	242,1,c	;volatile
  1303   001310                     
  1304                           ;main.c: 104:             LATDbits.LATD0 = !PORTDbits.RD0;
  1305   001310  8EF1               	bsf	241,7,c	;volatile
  1306   001312                     
  1307                           ;main.c: 105:             LATCbits.LATC2 = !PORTCbits.RC2;
  1308   001312  8CF1               	bsf	241,6,c	;volatile
  1309   001314                     
  1310                           ;main.c: 108:         } else {
  1311   001314  0E01               	movlw	1
  1312   001316  6E03               	movwf	Posiciona_LCD@coluna^0,c
  1313   001318  0E01               	movlw	1
  1314   00131A  EC6A  F01A         	call	_Posiciona_LCD
  1315   00131E                     
  1316                           ;main.c: 109: 
  1317   00131E  0E55               	movlw	low STR_2
  1318   001320  6E03               	movwf	Escreve_LCD@caracter^0,c
  1319   001322  5003               	movf	Escreve_LCD@caracter^0,w,c
  1320   001324  A4D8               	btfss	status,2,c
  1321   001326  0E08               	movlw	high __smallconst
  1322   001328  6E04               	movwf	(Escreve_LCD@caracter+1)^0,c
  1323   00132A  ECA2  F01A         	call	_Escreve_LCD	;wreg free
  1324   00132E                     
  1325                           ;main.c: 110:           if(alarme_ativo){
  1326   00132E  0E01               	movlw	1
  1327   001330  6E03               	movwf	Posiciona_LCD@coluna^0,c
  1328   001332  0E02               	movlw	2
  1329   001334  EC6A  F01A         	call	_Posiciona_LCD
  1330   001338                     
  1331                           ;main.c: 111: 
  1332   001338  0E3B               	movlw	low STR_1
  1333   00133A  6E03               	movwf	Escreve_LCD@caracter^0,c
  1334   00133C  5003               	movf	Escreve_LCD@caracter^0,w,c
  1335   00133E  A4D8               	btfss	status,2,c
  1336   001340  0E08               	movlw	high __smallconst
  1337   001342  6E04               	movwf	(Escreve_LCD@caracter+1)^0,c
  1338   001344  ECA2  F01A         	call	_Escreve_LCD	;wreg free
  1339   001348                     l5093:
  1340                           
  1341                           ;main.c: 117:              LATDbits.LATD4 = !PORTDbits.RD4;
  1342   001348  0100               	movlb	0	; () banked
  1343   00134A  51CE               	movf	_alarme_leve& (0+255),w,b	;volatile
  1344   00134C  B4D8               	btfsc	status,2,c
  1345   00134E  EFAB  F009         	goto	u7131
  1346   001352  EFAD  F009         	goto	u7130
  1347   001356                     u7131:
  1348   001356  EF62  F00A         	goto	l5099
  1349   00135A                     u7130:
  1350   00135A                     
  1351                           ; BSR set to: 0
  1352                           ;main.c: 120:              LATDbits.LATD1 = !PORTDbits.RD1;
  1353   00135A  A282               	btfss	130,1,c	;volatile
  1354   00135C  EFB2  F009         	goto	u7141
  1355   001360  EFB6  F009         	goto	u7140
  1356   001364                     u7141:
  1357   001364  6A5A               	clrf	??_main^0,c
  1358   001366  2A5A               	incf	??_main^0,f,c
  1359   001368  EFB7  F009         	goto	u7158
  1360   00136C                     u7140:
  1361   00136C  6A5A               	clrf	??_main^0,c
  1362   00136E                     u7158:
  1363   00136E  465A               	rlncf	??_main^0,f,c
  1364   001370  508B               	movf	139,w,c	;volatile
  1365   001372  185A               	xorwf	??_main^0,w,c
  1366   001374  0BFD               	andlw	-3
  1367   001376  185A               	xorwf	??_main^0,w,c
  1368   001378  6E8B               	movwf	139,c	;volatile
  1369                           
  1370                           ;main.c: 121:              LATDbits.LATD0 = !PORTDbits.RD0;
  1371   00137A  AE83               	btfss	131,7,c	;volatile
  1372   00137C  EFC2  F009         	goto	u7161
  1373   001380  EFC6  F009         	goto	u7160
  1374   001384                     u7161:
  1375   001384  6A5A               	clrf	??_main^0,c
  1376   001386  2A5A               	incf	??_main^0,f,c
  1377   001388  EFC7  F009         	goto	u7178
  1378   00138C                     u7160:
  1379   00138C  6A5A               	clrf	??_main^0,c
  1380   00138E                     u7178:
  1381   00138E  325A               	rrcf	??_main^0,f,c
  1382   001390  325A               	rrcf	??_main^0,f,c
  1383   001392  508C               	movf	140,w,c	;volatile
  1384   001394  185A               	xorwf	??_main^0,w,c
  1385   001396  0B7F               	andlw	-129
  1386   001398  185A               	xorwf	??_main^0,w,c
  1387   00139A  6E8C               	movwf	140,c	;volatile
  1388                           
  1389                           ;main.c: 122:              LATCbits.LATC2 = !PORTCbits.RC2;
  1390   00139C  AC83               	btfss	131,6,c	;volatile
  1391   00139E  EFD3  F009         	goto	u7181
  1392   0013A2  EFD7  F009         	goto	u7180
  1393   0013A6                     u7181:
  1394   0013A6  6A5A               	clrf	??_main^0,c
  1395   0013A8  2A5A               	incf	??_main^0,f,c
  1396   0013AA  EFD8  F009         	goto	u7198
  1397   0013AE                     u7180:
  1398   0013AE  6A5A               	clrf	??_main^0,c
  1399   0013B0                     u7198:
  1400   0013B0  3A5A               	swapf	??_main^0,f,c
  1401   0013B2  465A               	rlncf	??_main^0,f,c
  1402   0013B4  465A               	rlncf	??_main^0,f,c
  1403   0013B6  508C               	movf	140,w,c	;volatile
  1404   0013B8  185A               	xorwf	??_main^0,w,c
  1405   0013BA  0BBF               	andlw	-65
  1406   0013BC  185A               	xorwf	??_main^0,w,c
  1407   0013BE  6E8C               	movwf	140,c	;volatile
  1408                           
  1409                           ;main.c: 123:              _delay((unsigned long)((60000)*(20000000/4000000.0)));
  1410   0013C0  AA83               	btfss	131,5,c	;volatile
  1411   0013C2  EFE5  F009         	goto	u7201
  1412   0013C6  EFE9  F009         	goto	u7200
  1413   0013CA                     u7201:
  1414   0013CA  6A5A               	clrf	??_main^0,c
  1415   0013CC  2A5A               	incf	??_main^0,f,c
  1416   0013CE  EFEA  F009         	goto	u7218
  1417   0013D2                     u7200:
  1418   0013D2  6A5A               	clrf	??_main^0,c
  1419   0013D4                     u7218:
  1420   0013D4  3A5A               	swapf	??_main^0,f,c
  1421   0013D6  465A               	rlncf	??_main^0,f,c
  1422   0013D8  508C               	movf	140,w,c	;volatile
  1423   0013DA  185A               	xorwf	??_main^0,w,c
  1424   0013DC  0BDF               	andlw	-33
  1425   0013DE  185A               	xorwf	??_main^0,w,c
  1426   0013E0  6E8C               	movwf	140,c	;volatile
  1427                           
  1428                           ;main.c: 124: 
  1429   0013E2  A883               	btfss	131,4,c	;volatile
  1430   0013E4  EFF6  F009         	goto	u7221
  1431   0013E8  EFFA  F009         	goto	u7220
  1432   0013EC                     u7221:
  1433   0013EC  6A5A               	clrf	??_main^0,c
  1434   0013EE  2A5A               	incf	??_main^0,f,c
  1435   0013F0  EFFB  F009         	goto	u7238
  1436   0013F4                     u7220:
  1437   0013F4  6A5A               	clrf	??_main^0,c
  1438   0013F6                     u7238:
  1439   0013F6  3A5A               	swapf	??_main^0,f,c
  1440   0013F8  508C               	movf	140,w,c	;volatile
  1441   0013FA  185A               	xorwf	??_main^0,w,c
  1442   0013FC  0BEF               	andlw	-17
  1443   0013FE  185A               	xorwf	??_main^0,w,c
  1444   001400  6E8C               	movwf	140,c	;volatile
  1445                           
  1446                           ;main.c: 125:          } else {
  1447   001402  A683               	btfss	131,3,c	;volatile
  1448   001404  EF06  F00A         	goto	u7241
  1449   001408  EF0A  F00A         	goto	u7240
  1450   00140C                     u7241:
  1451   00140C  6A5A               	clrf	??_main^0,c
  1452   00140E  2A5A               	incf	??_main^0,f,c
  1453   001410  EF0B  F00A         	goto	u7258
  1454   001414                     u7240:
  1455   001414  6A5A               	clrf	??_main^0,c
  1456   001416                     u7258:
  1457   001416  465A               	rlncf	??_main^0,f,c
  1458   001418  465A               	rlncf	??_main^0,f,c
  1459   00141A  465A               	rlncf	??_main^0,f,c
  1460   00141C  508C               	movf	140,w,c	;volatile
  1461   00141E  185A               	xorwf	??_main^0,w,c
  1462   001420  0BF7               	andlw	-9
  1463   001422  185A               	xorwf	??_main^0,w,c
  1464   001424  6E8C               	movwf	140,c	;volatile
  1465                           
  1466                           ;main.c: 126: 
  1467   001426  A483               	btfss	131,2,c	;volatile
  1468   001428  EF18  F00A         	goto	u7261
  1469   00142C  EF1C  F00A         	goto	u7260
  1470   001430                     u7261:
  1471   001430  6A5A               	clrf	??_main^0,c
  1472   001432  2A5A               	incf	??_main^0,f,c
  1473   001434  EF1D  F00A         	goto	u7278
  1474   001438                     u7260:
  1475   001438  6A5A               	clrf	??_main^0,c
  1476   00143A                     u7278:
  1477   00143A  465A               	rlncf	??_main^0,f,c
  1478   00143C  465A               	rlncf	??_main^0,f,c
  1479   00143E  508C               	movf	140,w,c	;volatile
  1480   001440  185A               	xorwf	??_main^0,w,c
  1481   001442  0BFB               	andlw	-5
  1482   001444  185A               	xorwf	??_main^0,w,c
  1483   001446  6E8C               	movwf	140,c	;volatile
  1484                           
  1485                           ;main.c: 127:              PORTCbits.RC1 = 0;
  1486   001448  A283               	btfss	131,1,c	;volatile
  1487   00144A  EF29  F00A         	goto	u7281
  1488   00144E  EF2D  F00A         	goto	u7280
  1489   001452                     u7281:
  1490   001452  6A5A               	clrf	??_main^0,c
  1491   001454  2A5A               	incf	??_main^0,f,c
  1492   001456  EF2E  F00A         	goto	u7298
  1493   00145A                     u7280:
  1494   00145A  6A5A               	clrf	??_main^0,c
  1495   00145C                     u7298:
  1496   00145C  465A               	rlncf	??_main^0,f,c
  1497   00145E  508C               	movf	140,w,c	;volatile
  1498   001460  185A               	xorwf	??_main^0,w,c
  1499   001462  0BFD               	andlw	-3
  1500   001464  185A               	xorwf	??_main^0,w,c
  1501   001466  6E8C               	movwf	140,c	;volatile
  1502                           
  1503                           ;main.c: 128:              TRISDbits.TRISD7 = 0;
  1504   001468  A083               	btfss	131,0,c	;volatile
  1505   00146A  EF39  F00A         	goto	u7301
  1506   00146E  EF3D  F00A         	goto	u7300
  1507   001472                     u7301:
  1508   001472  6A5A               	clrf	??_main^0,c
  1509   001474  2A5A               	incf	??_main^0,f,c
  1510   001476  EF3E  F00A         	goto	u7318
  1511   00147A                     u7300:
  1512   00147A  6A5A               	clrf	??_main^0,c
  1513   00147C                     u7318:
  1514   00147C  508C               	movf	140,w,c	;volatile
  1515   00147E  185A               	xorwf	??_main^0,w,c
  1516   001480  0BFE               	andlw	-2
  1517   001482  185A               	xorwf	??_main^0,w,c
  1518   001484  6E8C               	movwf	140,c	;volatile
  1519                           
  1520                           ;main.c: 129:              TRISDbits.TRISD6 = 0;
  1521   001486  A482               	btfss	130,2,c	;volatile
  1522   001488  EF48  F00A         	goto	u7321
  1523   00148C  EF4C  F00A         	goto	u7320
  1524   001490                     u7321:
  1525   001490  6A5A               	clrf	??_main^0,c
  1526   001492  2A5A               	incf	??_main^0,f,c
  1527   001494  EF4D  F00A         	goto	u7338
  1528   001498                     u7320:
  1529   001498  6A5A               	clrf	??_main^0,c
  1530   00149A                     u7338:
  1531   00149A  465A               	rlncf	??_main^0,f,c
  1532   00149C  465A               	rlncf	??_main^0,f,c
  1533   00149E  508B               	movf	139,w,c	;volatile
  1534   0014A0  185A               	xorwf	??_main^0,w,c
  1535   0014A2  0BFB               	andlw	-5
  1536   0014A4  185A               	xorwf	??_main^0,w,c
  1537   0014A6  6E8B               	movwf	139,c	;volatile
  1538   0014A8                     
  1539                           ;main.c: 130:              TRISDbits.TRISD5 = 0;
  1540   0014A8  0E03               	movlw	3
  1541   0014AA  6E5B               	movwf	(??_main+1)^0,c
  1542   0014AC  0ECB               	movlw	203
  1543   0014AE  6E5A               	movwf	??_main^0,c
  1544   0014B0  0E45               	movlw	69
  1545   0014B2                     u7587:
  1546   0014B2  2EE8               	decfsz	wreg,f,c
  1547   0014B4  D7FE               	bra	u7587
  1548   0014B6  2E5A               	decfsz	??_main^0,f,c
  1549   0014B8  D7FC               	bra	u7587
  1550   0014BA  2E5B               	decfsz	(??_main+1)^0,f,c
  1551   0014BC  D7FA               	bra	u7587
  1552   0014BE  0000               	nop	
  1553                           
  1554                           ;main.c: 132:              TRISDbits.TRISD3 = 0;
  1555   0014C0  EF29  F00B         	goto	l5105
  1556   0014C4                     l5099:
  1557                           
  1558                           ; BSR set to: 0
  1559                           ;main.c: 134:              TRISDbits.TRISD1 = 0;
  1560   0014C4  51CF               	movf	_alarme_ativo& (0+255),w,b	;volatile
  1561   0014C6  B4D8               	btfsc	status,2,c
  1562   0014C8  EF68  F00A         	goto	u7341
  1563   0014CC  EF6A  F00A         	goto	u7340
  1564   0014D0                     u7341:
  1565   0014D0  EF1F  F00B         	goto	l109
  1566   0014D4                     u7340:
  1567   0014D4                     
  1568                           ; BSR set to: 0
  1569                           ;main.c: 137:          }
  1570   0014D4  A282               	btfss	130,1,c	;volatile
  1571   0014D6  EF6F  F00A         	goto	u7351
  1572   0014DA  EF73  F00A         	goto	u7350
  1573   0014DE                     u7351:
  1574   0014DE  6A5A               	clrf	??_main^0,c
  1575   0014E0  2A5A               	incf	??_main^0,f,c
  1576   0014E2  EF74  F00A         	goto	u7368
  1577   0014E6                     u7350:
  1578   0014E6  6A5A               	clrf	??_main^0,c
  1579   0014E8                     u7368:
  1580   0014E8  465A               	rlncf	??_main^0,f,c
  1581   0014EA  508B               	movf	139,w,c	;volatile
  1582   0014EC  185A               	xorwf	??_main^0,w,c
  1583   0014EE  0BFD               	andlw	-3
  1584   0014F0  185A               	xorwf	??_main^0,w,c
  1585   0014F2  6E8B               	movwf	139,c	;volatile
  1586                           
  1587                           ;main.c: 138: 
  1588   0014F4  AE83               	btfss	131,7,c	;volatile
  1589   0014F6  EF7F  F00A         	goto	u7371
  1590   0014FA  EF83  F00A         	goto	u7370
  1591   0014FE                     u7371:
  1592   0014FE  6A5A               	clrf	??_main^0,c
  1593   001500  2A5A               	incf	??_main^0,f,c
  1594   001502  EF84  F00A         	goto	u7388
  1595   001506                     u7370:
  1596   001506  6A5A               	clrf	??_main^0,c
  1597   001508                     u7388:
  1598   001508  325A               	rrcf	??_main^0,f,c
  1599   00150A  325A               	rrcf	??_main^0,f,c
  1600   00150C  508C               	movf	140,w,c	;volatile
  1601   00150E  185A               	xorwf	??_main^0,w,c
  1602   001510  0B7F               	andlw	-129
  1603   001512  185A               	xorwf	??_main^0,w,c
  1604   001514  6E8C               	movwf	140,c	;volatile
  1605                           
  1606                           ;main.c: 139: 
  1607   001516  AC83               	btfss	131,6,c	;volatile
  1608   001518  EF90  F00A         	goto	u7391
  1609   00151C  EF94  F00A         	goto	u7390
  1610   001520                     u7391:
  1611   001520  6A5A               	clrf	??_main^0,c
  1612   001522  2A5A               	incf	??_main^0,f,c
  1613   001524  EF95  F00A         	goto	u7408
  1614   001528                     u7390:
  1615   001528  6A5A               	clrf	??_main^0,c
  1616   00152A                     u7408:
  1617   00152A  3A5A               	swapf	??_main^0,f,c
  1618   00152C  465A               	rlncf	??_main^0,f,c
  1619   00152E  465A               	rlncf	??_main^0,f,c
  1620   001530  508C               	movf	140,w,c	;volatile
  1621   001532  185A               	xorwf	??_main^0,w,c
  1622   001534  0BBF               	andlw	-65
  1623   001536  185A               	xorwf	??_main^0,w,c
  1624   001538  6E8C               	movwf	140,c	;volatile
  1625                           
  1626                           ;main.c: 140:         }
  1627   00153A  AA83               	btfss	131,5,c	;volatile
  1628   00153C  EFA2  F00A         	goto	u7411
  1629   001540  EFA6  F00A         	goto	u7410
  1630   001544                     u7411:
  1631   001544  6A5A               	clrf	??_main^0,c
  1632   001546  2A5A               	incf	??_main^0,f,c
  1633   001548  EFA7  F00A         	goto	u7428
  1634   00154C                     u7410:
  1635   00154C  6A5A               	clrf	??_main^0,c
  1636   00154E                     u7428:
  1637   00154E  3A5A               	swapf	??_main^0,f,c
  1638   001550  465A               	rlncf	??_main^0,f,c
  1639   001552  508C               	movf	140,w,c	;volatile
  1640   001554  185A               	xorwf	??_main^0,w,c
  1641   001556  0BDF               	andlw	-33
  1642   001558  185A               	xorwf	??_main^0,w,c
  1643   00155A  6E8C               	movwf	140,c	;volatile
  1644                           
  1645                           ;main.c: 141: 
  1646   00155C  A883               	btfss	131,4,c	;volatile
  1647   00155E  EFB3  F00A         	goto	u7431
  1648   001562  EFB7  F00A         	goto	u7430
  1649   001566                     u7431:
  1650   001566  6A5A               	clrf	??_main^0,c
  1651   001568  2A5A               	incf	??_main^0,f,c
  1652   00156A  EFB8  F00A         	goto	u7448
  1653   00156E                     u7430:
  1654   00156E  6A5A               	clrf	??_main^0,c
  1655   001570                     u7448:
  1656   001570  3A5A               	swapf	??_main^0,f,c
  1657   001572  508C               	movf	140,w,c	;volatile
  1658   001574  185A               	xorwf	??_main^0,w,c
  1659   001576  0BEF               	andlw	-17
  1660   001578  185A               	xorwf	??_main^0,w,c
  1661   00157A  6E8C               	movwf	140,c	;volatile
  1662                           
  1663                           ;main.c: 142: 
  1664   00157C  A683               	btfss	131,3,c	;volatile
  1665   00157E  EFC3  F00A         	goto	u7451
  1666   001582  EFC7  F00A         	goto	u7450
  1667   001586                     u7451:
  1668   001586  6A5A               	clrf	??_main^0,c
  1669   001588  2A5A               	incf	??_main^0,f,c
  1670   00158A  EFC8  F00A         	goto	u7468
  1671   00158E                     u7450:
  1672   00158E  6A5A               	clrf	??_main^0,c
  1673   001590                     u7468:
  1674   001590  465A               	rlncf	??_main^0,f,c
  1675   001592  465A               	rlncf	??_main^0,f,c
  1676   001594  465A               	rlncf	??_main^0,f,c
  1677   001596  508C               	movf	140,w,c	;volatile
  1678   001598  185A               	xorwf	??_main^0,w,c
  1679   00159A  0BF7               	andlw	-9
  1680   00159C  185A               	xorwf	??_main^0,w,c
  1681   00159E  6E8C               	movwf	140,c	;volatile
  1682                           
  1683                           ;main.c: 143:         unsigned int adc_gas = read_adc_channel(0);
  1684   0015A0  A483               	btfss	131,2,c	;volatile
  1685   0015A2  EFD5  F00A         	goto	u7471
  1686   0015A6  EFD9  F00A         	goto	u7470
  1687   0015AA                     u7471:
  1688   0015AA  6A5A               	clrf	??_main^0,c
  1689   0015AC  2A5A               	incf	??_main^0,f,c
  1690   0015AE  EFDA  F00A         	goto	u7488
  1691   0015B2                     u7470:
  1692   0015B2  6A5A               	clrf	??_main^0,c
  1693   0015B4                     u7488:
  1694   0015B4  465A               	rlncf	??_main^0,f,c
  1695   0015B6  465A               	rlncf	??_main^0,f,c
  1696   0015B8  508C               	movf	140,w,c	;volatile
  1697   0015BA  185A               	xorwf	??_main^0,w,c
  1698   0015BC  0BFB               	andlw	-5
  1699   0015BE  185A               	xorwf	??_main^0,w,c
  1700   0015C0  6E8C               	movwf	140,c	;volatile
  1701                           
  1702                           ;main.c: 144:         unsigned int adc_temp = read_adc_channel(1);
  1703   0015C2  A283               	btfss	131,1,c	;volatile
  1704   0015C4  EFE6  F00A         	goto	u7491
  1705   0015C8  EFEA  F00A         	goto	u7490
  1706   0015CC                     u7491:
  1707   0015CC  6A5A               	clrf	??_main^0,c
  1708   0015CE  2A5A               	incf	??_main^0,f,c
  1709   0015D0  EFEB  F00A         	goto	u7508
  1710   0015D4                     u7490:
  1711   0015D4  6A5A               	clrf	??_main^0,c
  1712   0015D6                     u7508:
  1713   0015D6  465A               	rlncf	??_main^0,f,c
  1714   0015D8  508C               	movf	140,w,c	;volatile
  1715   0015DA  185A               	xorwf	??_main^0,w,c
  1716   0015DC  0BFD               	andlw	-3
  1717   0015DE  185A               	xorwf	??_main^0,w,c
  1718   0015E0  6E8C               	movwf	140,c	;volatile
  1719                           
  1720                           ;main.c: 145: 
  1721   0015E2  A083               	btfss	131,0,c	;volatile
  1722   0015E4  EFF6  F00A         	goto	u7511
  1723   0015E8  EFFA  F00A         	goto	u7510
  1724   0015EC                     u7511:
  1725   0015EC  6A5A               	clrf	??_main^0,c
  1726   0015EE  2A5A               	incf	??_main^0,f,c
  1727   0015F0  EFFB  F00A         	goto	u7528
  1728   0015F4                     u7510:
  1729   0015F4  6A5A               	clrf	??_main^0,c
  1730   0015F6                     u7528:
  1731   0015F6  508C               	movf	140,w,c	;volatile
  1732   0015F8  185A               	xorwf	??_main^0,w,c
  1733   0015FA  0BFE               	andlw	-2
  1734   0015FC  185A               	xorwf	??_main^0,w,c
  1735   0015FE  6E8C               	movwf	140,c	;volatile
  1736                           
  1737                           ;main.c: 146:         float temperatura = calculaTemperaturaSimples(adc_temp);
  1738   001600  A482               	btfss	130,2,c	;volatile
  1739   001602  EF05  F00B         	goto	u7531
  1740   001606  EF09  F00B         	goto	u7530
  1741   00160A                     u7531:
  1742   00160A  6A5A               	clrf	??_main^0,c
  1743   00160C  2A5A               	incf	??_main^0,f,c
  1744   00160E  EF0A  F00B         	goto	u7548
  1745   001612                     u7530:
  1746   001612  6A5A               	clrf	??_main^0,c
  1747   001614                     u7548:
  1748   001614  465A               	rlncf	??_main^0,f,c
  1749   001616  465A               	rlncf	??_main^0,f,c
  1750   001618  508B               	movf	139,w,c	;volatile
  1751   00161A  185A               	xorwf	??_main^0,w,c
  1752   00161C  0BFB               	andlw	-5
  1753   00161E  185A               	xorwf	??_main^0,w,c
  1754   001620  6E8B               	movwf	139,c	;volatile
  1755   001622                     
  1756                           ;main.c: 147: 
  1757   001622  0E02               	movlw	2
  1758   001624  6E5B               	movwf	(??_main+1)^0,c
  1759   001626  0E86               	movlw	134
  1760   001628  6E5A               	movwf	??_main^0,c
  1761   00162A  0E99               	movlw	153
  1762   00162C                     u7597:
  1763   00162C  2EE8               	decfsz	wreg,f,c
  1764   00162E  D7FE               	bra	u7597
  1765   001630  2E5A               	decfsz	??_main^0,f,c
  1766   001632  D7FC               	bra	u7597
  1767   001634  2E5B               	decfsz	(??_main+1)^0,f,c
  1768   001636  D7FA               	bra	u7597
  1769   001638  0000               	nop	
  1770                           
  1771                           ;main.c: 149:         Posiciona_LCD(1,1);
  1772   00163A  EF29  F00B         	goto	l5105
  1773   00163E                     l109:
  1774                           
  1775                           ; BSR set to: 0
  1776                           ;main.c: 151:         Escreve_LCD(lcd_buffer);
  1777   00163E  9282               	bcf	130,1,c	;volatile
  1778                           
  1779                           ;main.c: 152: 
  1780   001640  9E95               	bcf	149,7,c	;volatile
  1781                           
  1782                           ;main.c: 153: 
  1783   001642  9C95               	bcf	149,6,c	;volatile
  1784                           
  1785                           ;main.c: 154:         Posiciona_LCD(2,1);
  1786   001644  9A95               	bcf	149,5,c	;volatile
  1787                           
  1788                           ;main.c: 155:         sprintf(lcd_buffer, "Temp: %2.1f C", temperatura);
  1789   001646  9895               	bcf	149,4,c	;volatile
  1790                           
  1791                           ;main.c: 156:         Escreve_LCD(lcd_buffer);
  1792   001648  9695               	bcf	149,3,c	;volatile
  1793                           
  1794                           ;main.c: 157: 
  1795   00164A  9495               	bcf	149,2,c	;volatile
  1796                           
  1797                           ;main.c: 158:         _delay((unsigned long)((500)*(20000000/4000.0)));
  1798   00164C  9295               	bcf	149,1,c	;volatile
  1799                           
  1800                           ;main.c: 159: 
  1801   00164E  9095               	bcf	149,0,c	;volatile
  1802                           
  1803                           ;main.c: 160: 
  1804   001650  9494               	bcf	148,2,c	;volatile
  1805   001652                     l5105:
  1806                           
  1807                           ;main.c: 167:             Escreve_LCD("Alerta: Gas!");
  1808   001652  0E00               	movlw	0
  1809   001654  EC9B  F01B         	call	_read_adc_channel
  1810   001658  C001  F0BF         	movff	?_read_adc_channel,main@adc_gas
  1811   00165C  C002  F0C0         	movff	?_read_adc_channel+1,main@adc_gas+1
  1812                           
  1813                           ;main.c: 168:             alarme_ativo = 1;
  1814   001660  0E01               	movlw	1
  1815   001662  EC9B  F01B         	call	_read_adc_channel
  1816   001666  C001  F0B9         	movff	?_read_adc_channel,main@adc_temp
  1817   00166A  C002  F0BA         	movff	?_read_adc_channel+1,main@adc_temp+1
  1818   00166E                     
  1819                           ;main.c: 170: 
  1820   00166E  C0B9  F041         	movff	main@adc_temp,calculaTemperaturaSimples@adc_valor
  1821   001672  C0BA  F042         	movff	main@adc_temp+1,calculaTemperaturaSimples@adc_valor+1
  1822   001676  EC2C  F01A         	call	_calculaTemperaturaSimples	;wreg free
  1823   00167A  C041  F0BB         	movff	?_calculaTemperaturaSimples,main@temperatura
  1824   00167E  C042  F0BC         	movff	?_calculaTemperaturaSimples+1,main@temperatura+1
  1825   001682  C043  F0BD         	movff	?_calculaTemperaturaSimples+2,main@temperatura+2
  1826   001686  C044  F0BE         	movff	?_calculaTemperaturaSimples+3,main@temperatura+3
  1827   00168A                     
  1828                           ;main.c: 173:             Escreve_LCD("                ");
  1829   00168A  0E01               	movlw	1
  1830   00168C  6E03               	movwf	Posiciona_LCD@coluna^0,c
  1831   00168E  0E01               	movlw	1
  1832   001690  EC6A  F01A         	call	_Posiciona_LCD
  1833   001694                     
  1834                           ;main.c: 174: 
  1835   001694  0EA8               	movlw	low main@lcd_buffer
  1836   001696  0100               	movlb	0	; () banked
  1837   001698  6F96               	movwf	sprintf@s& (0+255),b
  1838   00169A  0E6C               	movlw	low STR_4
  1839   00169C  6F97               	movwf	sprintf@fmt& (0+255),b
  1840   00169E  C0BF  F098         	movff	main@adc_gas,?_sprintf+2
  1841   0016A2  C0C0  F099         	movff	main@adc_gas+1,?_sprintf+3
  1842   0016A6  EC39  F01C         	call	_sprintf	;wreg free
  1843   0016AA                     
  1844                           ;main.c: 175:             Posiciona_LCD(1,1);
  1845   0016AA  0EA8               	movlw	low main@lcd_buffer
  1846   0016AC  6E03               	movwf	Escreve_LCD@caracter^0,c
  1847   0016AE  6A04               	clrf	(Escreve_LCD@caracter+1)^0,c
  1848   0016B0  ECA2  F01A         	call	_Escreve_LCD	;wreg free
  1849   0016B4                     
  1850                           ;main.c: 178: 
  1851   0016B4  0E01               	movlw	1
  1852   0016B6  6E03               	movwf	Posiciona_LCD@coluna^0,c
  1853   0016B8  0E02               	movlw	2
  1854   0016BA  EC6A  F01A         	call	_Posiciona_LCD
  1855   0016BE                     
  1856                           ;main.c: 179:         }
  1857   0016BE  0EA8               	movlw	low main@lcd_buffer
  1858   0016C0  0100               	movlb	0	; () banked
  1859   0016C2  6F96               	movwf	sprintf@s& (0+255),b
  1860   0016C4  0E12               	movlw	low STR_5
  1861   0016C6  6F97               	movwf	sprintf@fmt& (0+255),b
  1862   0016C8  C0BB  F098         	movff	main@temperatura,?_sprintf+2
  1863   0016CC  C0BC  F099         	movff	main@temperatura+1,?_sprintf+3
  1864   0016D0  C0BD  F09A         	movff	main@temperatura+2,?_sprintf+4
  1865   0016D4  C0BE  F09B         	movff	main@temperatura+3,?_sprintf+5
  1866   0016D8  EC39  F01C         	call	_sprintf	;wreg free
  1867   0016DC                     
  1868                           ;main.c: 180:         else {
  1869   0016DC  0EA8               	movlw	low main@lcd_buffer
  1870   0016DE  6E03               	movwf	Escreve_LCD@caracter^0,c
  1871   0016E0  6A04               	clrf	(Escreve_LCD@caracter+1)^0,c
  1872   0016E2  ECA2  F01A         	call	_Escreve_LCD	;wreg free
  1873   0016E6                     
  1874                           ;main.c: 182:             Posiciona_LCD(1,1);
  1875   0016E6  0E0D               	movlw	13
  1876   0016E8  6E5B               	movwf	(??_main+1)^0,c
  1877   0016EA  0EAF               	movlw	175
  1878   0016EC  6E5A               	movwf	??_main^0,c
  1879   0016EE  0EB6               	movlw	182
  1880   0016F0                     u7607:
  1881   0016F0  2EE8               	decfsz	wreg,f,c
  1882   0016F2  D7FE               	bra	u7607
  1883   0016F4  2E5A               	decfsz	??_main^0,f,c
  1884   0016F6  D7FC               	bra	u7607
  1885   0016F8  2E5B               	decfsz	(??_main+1)^0,f,c
  1886   0016FA  D7FA               	bra	u7607
  1887   0016FC  D000               	nop2	
  1888   0016FE                     
  1889                           ;main.c: 185:             Posiciona_LCD(1,1);
  1890   0016FE  0E01               	movlw	1
  1891   001700  6E03               	movwf	Posiciona_LCD@coluna^0,c
  1892   001702  0E01               	movlw	1
  1893   001704  EC6A  F01A         	call	_Posiciona_LCD
  1894   001708                     
  1895                           ;main.c: 186:             Escreve_LCD("Ar Puro");
  1896   001708  0E91               	movlw	145
  1897   00170A  0100               	movlb	0	; () banked
  1898   00170C  5DBF               	subwf	main@adc_gas& (0+255),w,b
  1899   00170E  0E01               	movlw	1
  1900   001710  59C0               	subwfb	(main@adc_gas+1)& (0+255),w,b
  1901   001712  A0D8               	btfss	status,0,c
  1902   001714  EF8E  F00B         	goto	u7551
  1903   001718  EF90  F00B         	goto	u7550
  1904   00171C                     u7551:
  1905   00171C  EFAF  F00B         	goto	l5135
  1906   001720                     u7550:
  1907   001720                     
  1908                           ; BSR set to: 0
  1909                           ;main.c: 187: 
  1910   001720  0E01               	movlw	1
  1911   001722  6E03               	movwf	Posiciona_LCD@coluna^0,c
  1912   001724  0E01               	movlw	1
  1913   001726  EC6A  F01A         	call	_Posiciona_LCD
  1914   00172A                     
  1915                           ;main.c: 188: 
  1916   00172A  0E01               	movlw	low STR_6
  1917   00172C  6E03               	movwf	Escreve_LCD@caracter^0,c
  1918   00172E  5003               	movf	Escreve_LCD@caracter^0,w,c
  1919   001730  A4D8               	btfss	status,2,c
  1920   001732  0E08               	movlw	high __smallconst
  1921   001734  6E04               	movwf	(Escreve_LCD@caracter+1)^0,c
  1922   001736  ECA2  F01A         	call	_Escreve_LCD	;wreg free
  1923   00173A                     
  1924                           ;main.c: 190: 
  1925   00173A  0E01               	movlw	1
  1926   00173C  6E03               	movwf	Posiciona_LCD@coluna^0,c
  1927   00173E  0E01               	movlw	1
  1928   001740  EC6A  F01A         	call	_Posiciona_LCD
  1929                           
  1930                           ;main.c: 191:         Posiciona_LCD(2,14);
  1931   001744  0E2E               	movlw	low STR_7
  1932   001746  6E03               	movwf	Escreve_LCD@caracter^0,c
  1933   001748  5003               	movf	Escreve_LCD@caracter^0,w,c
  1934   00174A  A4D8               	btfss	status,2,c
  1935   00174C  0E08               	movlw	high __smallconst
  1936   00174E  6E04               	movwf	(Escreve_LCD@caracter+1)^0,c
  1937   001750  ECA2  F01A         	call	_Escreve_LCD	;wreg free
  1938   001754                     l5133:
  1939                           
  1940                           ;main.c: 192:         if (temperatura > 45.0) {
  1941   001754  0E01               	movlw	1
  1942   001756  0100               	movlb	0	; () banked
  1943   001758  6FCF               	movwf	_alarme_ativo& (0+255),b	;volatile
  1944                           
  1945                           ;main.c: 195: 
  1946   00175A  EFF0  F00B         	goto	l5151
  1947   00175E                     l5135:
  1948                           
  1949                           ; BSR set to: 0
  1950   00175E  51C0               	movf	(main@adc_gas+1)& (0+255),w,b
  1951   001760  E109               	bnz	u7560
  1952   001762  0EC9               	movlw	201
  1953   001764  5DBF               	subwf	main@adc_gas& (0+255),w,b
  1954   001766  A0D8               	btfss	status,0,c
  1955   001768  EFB8  F00B         	goto	u7561
  1956   00176C  EFBA  F00B         	goto	u7560
  1957   001770                     u7561:
  1958   001770  EFD6  F00B         	goto	l5145
  1959   001774                     u7560:
  1960   001774                     
  1961                           ; BSR set to: 0
  1962                           ;main.c: 196:             Posiciona_LCD(2,1);
  1963   001774  0E01               	movlw	1
  1964   001776  6E03               	movwf	Posiciona_LCD@coluna^0,c
  1965   001778  0E01               	movlw	1
  1966   00177A  EC6A  F01A         	call	_Posiciona_LCD
  1967   00177E                     
  1968                           ;main.c: 197:             Escreve_LCD("Temp: Alta");
  1969   00177E  0E01               	movlw	low STR_6
  1970   001780  6E03               	movwf	Escreve_LCD@caracter^0,c
  1971   001782  5003               	movf	Escreve_LCD@caracter^0,w,c
  1972   001784  A4D8               	btfss	status,2,c
  1973   001786  0E08               	movlw	high __smallconst
  1974   001788  6E04               	movwf	(Escreve_LCD@caracter+1)^0,c
  1975   00178A  ECA2  F01A         	call	_Escreve_LCD	;wreg free
  1976   00178E                     
  1977                           ;main.c: 199:             _delay((unsigned long)((500)*(20000000/4000.0)));
  1978   00178E  0E01               	movlw	1
  1979   001790  6E03               	movwf	Posiciona_LCD@coluna^0,c
  1980   001792  0E01               	movlw	1
  1981   001794  EC6A  F01A         	call	_Posiciona_LCD
  1982                           
  1983                           ;main.c: 200: 
  1984   001798  0E20               	movlw	low STR_9
  1985   00179A  6E03               	movwf	Escreve_LCD@caracter^0,c
  1986   00179C  5003               	movf	Escreve_LCD@caracter^0,w,c
  1987   00179E  A4D8               	btfss	status,2,c
  1988   0017A0  0E08               	movlw	high __smallconst
  1989   0017A2  6E04               	movwf	(Escreve_LCD@caracter+1)^0,c
  1990   0017A4  ECA2  F01A         	call	_Escreve_LCD	;wreg free
  1991   0017A8  EFAA  F00B         	goto	l5133
  1992   0017AC                     l5145:
  1993                           
  1994                           ; BSR set to: 0
  1995                           ;main.c: 206:             Escreve_LCD("Temp: Normal");
  1996   0017AC  0E01               	movlw	1
  1997   0017AE  6E03               	movwf	Posiciona_LCD@coluna^0,c
  1998   0017B0  0E01               	movlw	1
  1999   0017B2  EC6A  F01A         	call	_Posiciona_LCD
  2000   0017B6                     
  2001                           ;main.c: 207:             _delay((unsigned long)((500)*(20000000/4000.0)));
  2002   0017B6  0E01               	movlw	low STR_6
  2003   0017B8  6E03               	movwf	Escreve_LCD@caracter^0,c
  2004   0017BA  5003               	movf	Escreve_LCD@caracter^0,w,c
  2005   0017BC  A4D8               	btfss	status,2,c
  2006   0017BE  0E08               	movlw	high __smallconst
  2007   0017C0  6E04               	movwf	(Escreve_LCD@caracter+1)^0,c
  2008   0017C2  ECA2  F01A         	call	_Escreve_LCD	;wreg free
  2009   0017C6                     
  2010                           ;main.c: 209: 
  2011   0017C6  0E01               	movlw	1
  2012   0017C8  6E03               	movwf	Posiciona_LCD@coluna^0,c
  2013   0017CA  0E01               	movlw	1
  2014   0017CC  EC6A  F01A         	call	_Posiciona_LCD
  2015                           
  2016                           ;main.c: 210: 
  2017   0017D0  0E76               	movlw	low STR_11
  2018   0017D2  6E03               	movwf	Escreve_LCD@caracter^0,c
  2019   0017D4  5003               	movf	Escreve_LCD@caracter^0,w,c
  2020   0017D6  A4D8               	btfss	status,2,c
  2021   0017D8  0E08               	movlw	high __smallconst
  2022   0017DA  6E04               	movwf	(Escreve_LCD@caracter+1)^0,c
  2023   0017DC  ECA2  F01A         	call	_Escreve_LCD	;wreg free
  2024   0017E0                     l5151:
  2025   0017E0  0E0E               	movlw	14
  2026   0017E2  6E03               	movwf	Posiciona_LCD@coluna^0,c
  2027   0017E4  0E02               	movlw	2
  2028   0017E6  EC6A  F01A         	call	_Posiciona_LCD
  2029   0017EA  0E00               	movlw	0
  2030   0017EC  6E41               	movwf	___flge@ff1^0,c
  2031   0017EE  0E00               	movlw	0
  2032   0017F0  6E42               	movwf	(___flge@ff1+1)^0,c
  2033   0017F2  0E34               	movlw	52
  2034   0017F4  6E43               	movwf	(___flge@ff1+2)^0,c
  2035   0017F6  0E42               	movlw	66
  2036   0017F8  6E44               	movwf	(___flge@ff1+3)^0,c
  2037   0017FA  C0BB  F045         	movff	main@temperatura,___flge@ff2
  2038   0017FE  C0BC  F046         	movff	main@temperatura+1,___flge@ff2+1
  2039   001802  C0BD  F047         	movff	main@temperatura+2,___flge@ff2+2
  2040   001806  C0BE  F048         	movff	main@temperatura+3,___flge@ff2+3
  2041   00180A  EC2C  F017         	call	___flge	;wreg free
  2042   00180E  B0D8               	btfsc	status,0,c
  2043   001810  EF0C  F00C         	goto	u7571
  2044   001814  EF0E  F00C         	goto	u7570
  2045   001818                     u7571:
  2046   001818  EF39  F00C         	goto	l5165
  2047   00181C                     u7570:
  2048   00181C  0E01               	movlw	1
  2049   00181E  6E03               	movwf	Posiciona_LCD@coluna^0,c
  2050   001820  0E02               	movlw	2
  2051   001822  EC6A  F01A         	call	_Posiciona_LCD
  2052   001826  0E01               	movlw	low STR_6
  2053   001828  6E03               	movwf	Escreve_LCD@caracter^0,c
  2054   00182A  5003               	movf	Escreve_LCD@caracter^0,w,c
  2055   00182C  A4D8               	btfss	status,2,c
  2056   00182E  0E08               	movlw	high __smallconst
  2057   001830  6E04               	movwf	(Escreve_LCD@caracter+1)^0,c
  2058   001832  ECA2  F01A         	call	_Escreve_LCD	;wreg free
  2059   001836  0E01               	movlw	1
  2060   001838  6E03               	movwf	Posiciona_LCD@coluna^0,c
  2061   00183A  0E02               	movlw	2
  2062   00183C  EC6A  F01A         	call	_Posiciona_LCD
  2063   001840  0E61               	movlw	low STR_13
  2064   001842  6E03               	movwf	Escreve_LCD@caracter^0,c
  2065   001844  5003               	movf	Escreve_LCD@caracter^0,w,c
  2066   001846  A4D8               	btfss	status,2,c
  2067   001848  0E08               	movlw	high __smallconst
  2068   00184A  6E04               	movwf	(Escreve_LCD@caracter+1)^0,c
  2069   00184C  ECA2  F01A         	call	_Escreve_LCD	;wreg free
  2070   001850  0E01               	movlw	1
  2071   001852  0100               	movlb	0	; () banked
  2072   001854  6FCF               	movwf	_alarme_ativo& (0+255),b	;volatile
  2073   001856                     l5163:
  2074   001856  0E0D               	movlw	13
  2075   001858  6E5B               	movwf	(??_main+1)^0,c
  2076   00185A  0EAF               	movlw	175
  2077   00185C  6E5A               	movwf	??_main^0,c
  2078   00185E  0EB6               	movlw	182
  2079   001860                     u7617:
  2080   001860  2EE8               	decfsz	wreg,f,c
  2081   001862  D7FE               	bra	u7617
  2082   001864  2E5A               	decfsz	??_main^0,f,c
  2083   001866  D7FC               	bra	u7617
  2084   001868  2E5B               	decfsz	(??_main+1)^0,f,c
  2085   00186A  D7FA               	bra	u7617
  2086   00186C  D000               	nop2	
  2087   00186E  EFA4  F009         	goto	l5093
  2088   001872                     l5165:
  2089   001872  0E01               	movlw	1
  2090   001874  6E03               	movwf	Posiciona_LCD@coluna^0,c
  2091   001876  0E02               	movlw	2
  2092   001878  EC6A  F01A         	call	_Posiciona_LCD
  2093   00187C  0E01               	movlw	low STR_6
  2094   00187E  6E03               	movwf	Escreve_LCD@caracter^0,c
  2095   001880  5003               	movf	Escreve_LCD@caracter^0,w,c
  2096   001882  A4D8               	btfss	status,2,c
  2097   001884  0E08               	movlw	high __smallconst
  2098   001886  6E04               	movwf	(Escreve_LCD@caracter+1)^0,c
  2099   001888  ECA2  F01A         	call	_Escreve_LCD	;wreg free
  2100   00188C  0E01               	movlw	1
  2101   00188E  6E03               	movwf	Posiciona_LCD@coluna^0,c
  2102   001890  0E02               	movlw	2
  2103   001892  EC6A  F01A         	call	_Posiciona_LCD
  2104   001896  0E48               	movlw	low STR_15
  2105   001898  6E03               	movwf	Escreve_LCD@caracter^0,c
  2106   00189A  5003               	movf	Escreve_LCD@caracter^0,w,c
  2107   00189C  A4D8               	btfss	status,2,c
  2108   00189E  0E08               	movlw	high __smallconst
  2109   0018A0  6E04               	movwf	(Escreve_LCD@caracter+1)^0,c
  2110   0018A2  ECA2  F01A         	call	_Escreve_LCD	;wreg free
  2111   0018A6  EF2B  F00C         	goto	l5163
  2112   0018AA  EF07  F000         	goto	start
  2113   0018AE                     __end_of_main:
  2114                           	callstack 0
  2115                           
  2116 ;; *************** function _sprintf *****************
  2117 ;; Defined at:
  2118 ;;		line 9 in file "C:\Program Files\Microchip\xc8\v3.00\pic\sources\c99\common\nf_sprintf.c"
  2119 ;; Parameters:    Size  Location     Type
  2120 ;;  s               1   54[BANK0 ] PTR unsigned char 
  2121 ;;		 -> main@lcd_buffer(17), 
  2122 ;;  fmt             1   55[BANK0 ] PTR const unsigned char 
  2123 ;;		 -> STR_5(14), STR_4(10), 
  2124 ;; Auto vars:     Size  Location     Type
  2125 ;;  f              11   61[BANK0 ] struct _IO_FILE
  2126 ;;  ret             2    0        int 
  2127 ;;  ap              1   60[BANK0 ] PTR void [1]
  2128 ;;		 -> ?_sprintf(2), 
  2129 ;; Return value:  Size  Location     Type
  2130 ;;                  2   54[BANK0 ] int 
  2131 ;; Registers used:
  2132 ;;		wreg, fsr1l, fsr1h, fsr2l, fsr2h, status,2, status,0, tblptrl, tblptrh, tblptru, prodl, prodh, cstack
  2133 ;; Tracked objects:
  2134 ;;		On entry : 0/0
  2135 ;;		On exit  : 0/0
  2136 ;;		Unchanged: 0/0
  2137 ;; Data sizes:     COMRAM   BANK0   BANK1   BANK2   BANK3   BANK4   BANK5   BANK6   BANK7
  2138 ;;      Params:         0       6       0       0       0       0       0       0       0
  2139 ;;      Locals:         0      12       0       0       0       0       0       0       0
  2140 ;;      Temps:          0       0       0       0       0       0       0       0       0
  2141 ;;      Totals:         0      18       0       0       0       0       0       0       0
  2142 ;;Total ram usage:       18 bytes
  2143 ;; Hardware stack levels used: 1
  2144 ;; Hardware stack levels required when called: 8
  2145 ;; This function calls:
  2146 ;;		_vfprintf
  2147 ;; This function is called by:
  2148 ;;		_main
  2149 ;; This function uses a non-reentrant model
  2150 ;;
  2151                           
  2152                           	psect	text1
  2153   003872                     __ptext1:
  2154                           	callstack 0
  2155   003872                     _sprintf:
  2156                           	callstack 22
  2157   003872  0E98               	movlw	low (?_sprintf+2)
  2158   003874  0100               	movlb	0	; () banked
  2159   003876  6F9C               	movwf	sprintf@ap& (0+255),b
  2160   003878  C096  F09D         	movff	sprintf@s,sprintf@f
  2161   00387C                     
  2162                           ; BSR set to: 0
  2163   00387C  0E00               	movlw	0
  2164   00387E  6FA0               	movwf	(sprintf@f+3)& (0+255),b
  2165   003880  0E00               	movlw	0
  2166   003882  6F9F               	movwf	(sprintf@f+2)& (0+255),b
  2167   003884                     
  2168                           ; BSR set to: 0
  2169   003884  0E00               	movlw	0
  2170   003886  6FA7               	movwf	(sprintf@f+10)& (0+255),b
  2171   003888  0E00               	movlw	0
  2172   00388A  6FA6               	movwf	(sprintf@f+9)& (0+255),b
  2173   00388C                     
  2174                           ; BSR set to: 0
  2175   00388C  0E9D               	movlw	low sprintf@f
  2176   00388E  6F93               	movwf	vfprintf@fp& (0+255),b
  2177   003890  C097  F094         	movff	sprintf@fmt,vfprintf@fmt
  2178   003894  0E9C               	movlw	low sprintf@ap
  2179   003896  6F95               	movwf	vfprintf@ap& (0+255),b
  2180   003898  ECBD  F01B         	call	_vfprintf	;wreg free
  2181   00389C  0100               	movlb	0	; () banked
  2182   00389E  5196               	movf	sprintf@s& (0+255),w,b
  2183   0038A0  259F               	addwf	(sprintf@f+2)& (0+255),w,b
  2184   0038A2  6ED9               	movwf	fsr2l,c
  2185   0038A4  6ADA               	clrf	fsr2h,c
  2186   0038A6  6ADF               	clrf	indf2,c
  2187   0038A8                     
  2188                           ; BSR set to: 0
  2189   0038A8  0012               	return		;funcret
  2190   0038AA                     __end_of_sprintf:
  2191                           	callstack 0
  2192                           
  2193 ;; *************** function _vfprintf *****************
  2194 ;; Defined at:
  2195 ;;		line 1817 in file "C:\Program Files\Microchip\xc8\v3.00\pic\sources\c99\common\doprnt.c"
  2196 ;; Parameters:    Size  Location     Type
  2197 ;;  fp              1   51[BANK0 ] PTR struct _IO_FILE
  2198 ;;		 -> sprintf@f(11), 
  2199 ;;  fmt             1   52[BANK0 ] PTR const unsigned char 
  2200 ;;		 -> STR_5(14), STR_4(10), 
  2201 ;;  ap              1   53[BANK0 ] PTR PTR void 
  2202 ;;		 -> sprintf@ap(1), 
  2203 ;; Auto vars:     Size  Location     Type
  2204 ;;  cfmt            1   88[COMRAM] PTR unsigned char 
  2205 ;;		 -> STR_5(14), STR_4(10), 
  2206 ;; Return value:  Size  Location     Type
  2207 ;;                  2   51[BANK0 ] int 
  2208 ;; Registers used:
  2209 ;;		wreg, fsr1l, fsr1h, fsr2l, fsr2h, status,2, status,0, tblptrl, tblptrh, tblptru, prodl, prodh, cstack
  2210 ;; Tracked objects:
  2211 ;;		On entry : 0/0
  2212 ;;		On exit  : 0/0
  2213 ;;		Unchanged: 0/0
  2214 ;; Data sizes:     COMRAM   BANK0   BANK1   BANK2   BANK3   BANK4   BANK5   BANK6   BANK7
  2215 ;;      Params:         0       3       0       0       0       0       0       0       0
  2216 ;;      Locals:         1       0       0       0       0       0       0       0       0
  2217 ;;      Temps:          0       0       0       0       0       0       0       0       0
  2218 ;;      Totals:         1       3       0       0       0       0       0       0       0
  2219 ;;Total ram usage:        4 bytes
  2220 ;; Hardware stack levels used: 1
  2221 ;; Hardware stack levels required when called: 7
  2222 ;; This function calls:
  2223 ;;		_vfpfcnvrt
  2224 ;; This function is called by:
  2225 ;;		_sprintf
  2226 ;; This function uses a non-reentrant model
  2227 ;;
  2228                           
  2229                           	psect	text2
  2230   00377A                     __ptext2:
  2231                           	callstack 0
  2232   00377A                     _vfprintf:
  2233                           	callstack 22
  2234   00377A                     
  2235                           ;C:\Program Files\Microchip\xc8\v3.00\pic\sources\c99\common\doprnt.c: 1817: int vfprint
      +                          f(FILE *fp, const char *fmt, va_list ap);C:\Program Files\Microchip\xc8\v3.00\pic\source
      +                          s\c99\common\doprnt.c: 1818: {;C:\Program Files\Microchip\xc8\v3.00\pic\sources\c99\comm
      +                          on\doprnt.c: 1820:     char *cfmt;;C:\Program Files\Microchip\xc8\v3.00\pic\sources\c99\
      +                          common\doprnt.c: 1822:     cfmt = (char *)fmt;
  2236   00377A  C094  F059         	movff	vfprintf@fmt,vfprintf@cfmt
  2237                           
  2238                           ;C:\Program Files\Microchip\xc8\v3.00\pic\sources\c99\common\doprnt.c: 1826:     while (
      +                          *cfmt) {
  2239   00377E  EFC9  F01B         	goto	l5027
  2240   003782                     l5025:
  2241                           
  2242                           ;C:\Program Files\Microchip\xc8\v3.00\pic\sources\c99\common\doprnt.c: 1830:    vfpfcnvr
      +                          t(fp, &cfmt, ap);
  2243   003782  C093  F055         	movff	vfprintf@fp,vfpfcnvrt@fp
  2244   003786  0E59               	movlw	low vfprintf@cfmt
  2245   003788  6E56               	movwf	vfpfcnvrt@fmt^0,c
  2246   00378A  C095  F057         	movff	vfprintf@ap,vfpfcnvrt@ap
  2247   00378E  EC8D  F012         	call	_vfpfcnvrt	;wreg free
  2248   003792                     l5027:
  2249                           
  2250                           ;C:\Program Files\Microchip\xc8\v3.00\pic\sources\c99\common\doprnt.c: 1826:     while (
      +                          *cfmt) {
  2251   003792  C059  FFF6         	movff	vfprintf@cfmt,tblptrl
  2252   003796                     	if	1	;There is more than 1 active tblptr byte
  2253   003796  0E08               	movlw	high __smallconst
  2254   003798  6EF7               	movwf	tblptrh,c
  2255   00379A                     	endif
  2256   00379A                     	if	0	;tblptru may be non-zero
  2257   00379A                     	endif
  2258   00379A                     	if	0	;tblptru may be non-zero
  2259   00379A                     	endif
  2260   00379A  0008               	tblrd		*
  2261   00379C  50F5               	movf	tablat,w,c
  2262   00379E  0900               	iorlw	0
  2263   0037A0  A4D8               	btfss	status,2,c
  2264   0037A2  EFD5  F01B         	goto	u7121
  2265   0037A6  EFD7  F01B         	goto	u7120
  2266   0037AA                     u7121:
  2267   0037AA  EFC1  F01B         	goto	l5025
  2268   0037AE                     u7120:
  2269   0037AE                     
  2270                           ;C:\Program Files\Microchip\xc8\v3.00\pic\sources\c99\common\doprnt.c: 1835:  return 0;
  2271   0037AE  0E00               	movlw	0
  2272   0037B0  0100               	movlb	0	; () banked
  2273   0037B2  6F94               	movwf	(?_vfprintf+1)& (0+255),b
  2274   0037B4  0E00               	movlw	0
  2275   0037B6  6F93               	movwf	?_vfprintf& (0+255),b
  2276   0037B8                     
  2277                           ; BSR set to: 0
  2278   0037B8  0012               	return		;funcret
  2279   0037BA                     __end_of_vfprintf:
  2280                           	callstack 0
  2281                           
  2282 ;; *************** function _vfpfcnvrt *****************
  2283 ;; Defined at:
  2284 ;;		line 1177 in file "C:\Program Files\Microchip\xc8\v3.00\pic\sources\c99\common\doprnt.c"
  2285 ;; Parameters:    Size  Location     Type
  2286 ;;  fp              1   84[COMRAM] PTR struct _IO_FILE
  2287 ;;		 -> sprintf@f(11), 
  2288 ;;  fmt             1   85[COMRAM] PTR PTR unsigned char 
  2289 ;;		 -> vfprintf@cfmt(1), 
  2290 ;;  ap              1   86[COMRAM] PTR PTR void 
  2291 ;;		 -> sprintf@ap(1), 
  2292 ;; Auto vars:     Size  Location     Type
  2293 ;;  convarg         4   45[BANK0 ] struct .
  2294 ;;  cp              1   50[BANK0 ] PTR unsigned char 
  2295 ;;		 -> STR_5(14), STR_4(10), 
  2296 ;;  c               1   49[BANK0 ] unsigned char 
  2297 ;;  done            1   44[BANK0 ] _Bool 
  2298 ;; Return value:  Size  Location     Type
  2299 ;;                  1    wreg      void 
  2300 ;; Registers used:
  2301 ;;		wreg, fsr1l, fsr1h, fsr2l, fsr2h, status,2, status,0, tblptrl, tblptrh, tblptru, prodl, prodh, cstack
  2302 ;; Tracked objects:
  2303 ;;		On entry : 0/0
  2304 ;;		On exit  : 0/0
  2305 ;;		Unchanged: 0/0
  2306 ;; Data sizes:     COMRAM   BANK0   BANK1   BANK2   BANK3   BANK4   BANK5   BANK6   BANK7
  2307 ;;      Params:         3       0       0       0       0       0       0       0       0
  2308 ;;      Locals:         0       7       0       0       0       0       0       0       0
  2309 ;;      Temps:          1       0       0       0       0       0       0       0       0
  2310 ;;      Totals:         4       7       0       0       0       0       0       0       0
  2311 ;;Total ram usage:       11 bytes
  2312 ;; Hardware stack levels used: 1
  2313 ;; Hardware stack levels required when called: 6
  2314 ;; This function calls:
  2315 ;;		_dtoa
  2316 ;;		_efgtoa
  2317 ;;		_fputc
  2318 ;;		_read_prec_or_width
  2319 ;; This function is called by:
  2320 ;;		_vfprintf
  2321 ;; This function uses a non-reentrant model
  2322 ;;
  2323                           
  2324                           	psect	text3
  2325   00251A                     __ptext3:
  2326                           	callstack 0
  2327   00251A                     _vfpfcnvrt:
  2328                           	callstack 22
  2329   00251A                     
  2330                           ;C:\Program Files\Microchip\xc8\v3.00\pic\sources\c99\common\doprnt.c: 1177: vfpfcnvrt(F
      +                          ILE *fp, char *fmt[], va_list ap);C:\Program Files\Microchip\xc8\v3.00\pic\sources\c99\c
      +                          ommon\doprnt.c: 1178: {;C:\Program Files\Microchip\xc8\v3.00\pic\sources\c99\common\dopr
      +                          nt.c: 1179:     char c, *cp;;C:\Program Files\Microchip\xc8\v3.00\pic\sources\c99\common
      +                          \doprnt.c: 1180:     _Bool done;;C:\Program Files\Microchip\xc8\v3.00\pic\sources\c99\co
      +                          mmon\doprnt.c: 1188:  } convarg;;C:\Program Files\Microchip\xc8\v3.00\pic\sources\c99\co
      +                          mmon\doprnt.c: 1201:     if ((*fmt)[0] == '%') {
  2331   00251A  5056               	movf	vfpfcnvrt@fmt^0,w,c
  2332   00251C  6ED9               	movwf	fsr2l,c
  2333   00251E  6ADA               	clrf	fsr2h,c
  2334   002520  CFDF FFF6          	movff	indf2,tblptrl
  2335   002524                     	if	1	;There is more than 1 active tblptr byte
  2336   002524  0E08               	movlw	high __smallconst
  2337   002526  6EF7               	movwf	tblptrh,c
  2338   002528                     	endif
  2339   002528                     	if	0	;tblptru may be non-zero
  2340   002528                     	endif
  2341   002528                     	if	0	;tblptru may be non-zero
  2342   002528                     	endif
  2343   002528  0008               	tblrd		*
  2344   00252A  50F5               	movf	tablat,w,c
  2345   00252C  0A25               	xorlw	37
  2346   00252E  A4D8               	btfss	status,2,c
  2347   002530  EF9C  F012         	goto	u7051
  2348   002534  EF9E  F012         	goto	u7050
  2349   002538                     u7051:
  2350   002538  EFDB  F013         	goto	l5017
  2351   00253C                     u7050:
  2352   00253C                     
  2353                           ;C:\Program Files\Microchip\xc8\v3.00\pic\sources\c99\common\doprnt.c: 1202:         ++*
      +                          fmt;
  2354   00253C  5056               	movf	vfpfcnvrt@fmt^0,w,c
  2355   00253E  6ED9               	movwf	fsr2l,c
  2356   002540  6ADA               	clrf	fsr2h,c
  2357   002542  2ADF               	incf	indf2,f,c
  2358   002544                     
  2359                           ;C:\Program Files\Microchip\xc8\v3.00\pic\sources\c99\common\doprnt.c: 1204:         fla
      +                          gs = width = 0;
  2360   002544  0E00               	movlw	0
  2361   002546  0100               	movlb	0	; () banked
  2362   002548  6FCA               	movwf	(_width+1)& (0+255),b
  2363   00254A  0E00               	movlw	0
  2364   00254C  6FC9               	movwf	_width& (0+255),b
  2365   00254E  C0C9  F0CD         	movff	_width,_flags
  2366   002552                     
  2367                           ; BSR set to: 0
  2368                           ;C:\Program Files\Microchip\xc8\v3.00\pic\sources\c99\common\doprnt.c: 1205:         pre
      +                          c = -1;
  2369   002552  69CB               	setf	_prec& (0+255),b
  2370   002554  69CC               	setf	(_prec+1)& (0+255),b
  2371   002556                     
  2372                           ; BSR set to: 0
  2373                           ;C:\Program Files\Microchip\xc8\v3.00\pic\sources\c99\common\doprnt.c: 1209:         don
      +                          e = 0;
  2374   002556  6B8C               	clrf	vfpfcnvrt@done& (0+255),b
  2375                           
  2376                           ;C:\Program Files\Microchip\xc8\v3.00\pic\sources\c99\common\doprnt.c: 1210:         whi
      +                          le (!done) {
  2377   002558  EFC8  F012         	goto	l4953
  2378   00255C                     l4943:
  2379                           
  2380                           ; BSR set to: 0
  2381                           ;C:\Program Files\Microchip\xc8\v3.00\pic\sources\c99\common\doprnt.c: 1220:            
      +                                   flags |= (1 << 1);
  2382   00255C  83CD               	bsf	_flags& (0+255),1,b
  2383   00255E                     
  2384                           ; BSR set to: 0
  2385                           ;C:\Program Files\Microchip\xc8\v3.00\pic\sources\c99\common\doprnt.c: 1221:            
      +                                   ++*fmt;
  2386   00255E  5056               	movf	vfpfcnvrt@fmt^0,w,c
  2387   002560  6ED9               	movwf	fsr2l,c
  2388   002562  6ADA               	clrf	fsr2h,c
  2389   002564  2ADF               	incf	indf2,f,c
  2390                           
  2391                           ;C:\Program Files\Microchip\xc8\v3.00\pic\sources\c99\common\doprnt.c: 1222:            
      +                                   break;
  2392   002566  EFC8  F012         	goto	l4953
  2393   00256A                     l4947:
  2394                           
  2395                           ; BSR set to: 0
  2396                           ;C:\Program Files\Microchip\xc8\v3.00\pic\sources\c99\common\doprnt.c: 1243:            
      +                                   done = 1;
  2397   00256A  0E01               	movlw	1
  2398   00256C  6F8C               	movwf	vfpfcnvrt@done& (0+255),b
  2399                           
  2400                           ;C:\Program Files\Microchip\xc8\v3.00\pic\sources\c99\common\doprnt.c: 1244:            
      +                                   break;
  2401   00256E  EFC8  F012         	goto	l4953
  2402   002572                     l4951:
  2403                           
  2404                           ; BSR set to: 0
  2405   002572  5056               	movf	vfpfcnvrt@fmt^0,w,c
  2406   002574  6ED9               	movwf	fsr2l,c
  2407   002576  6ADA               	clrf	fsr2h,c
  2408   002578  CFDF FFF6          	movff	indf2,tblptrl
  2409   00257C                     	if	1	;There is more than 1 active tblptr byte
  2410   00257C  0E08               	movlw	high __smallconst
  2411   00257E  6EF7               	movwf	tblptrh,c
  2412   002580                     	endif
  2413   002580                     	if	0	;tblptru may be non-zero
  2414   002580                     	endif
  2415   002580                     	if	0	;tblptru may be non-zero
  2416   002580                     	endif
  2417   002580  0008               	tblrd		*
  2418   002582  50F5               	movf	tablat,w,c
  2419                           
  2420                           ; Switch size 1, requested type "simple"
  2421                           ; Number of cases is 1, Range of values is 48 to 48
  2422                           ; switch strategies available:
  2423                           ; Name         Instructions Cycles
  2424                           ; simple_byte            4     3 (average)
  2425                           ;	Chosen strategy is simple_byte
  2426   002584  0A30               	xorlw	48	; case 48
  2427   002586  B4D8               	btfsc	status,2,c
  2428   002588  EFAE  F012         	goto	l4943
  2429   00258C  EFB5  F012         	goto	l4947
  2430   002590                     l4953:
  2431                           
  2432                           ; BSR set to: 0
  2433                           ;C:\Program Files\Microchip\xc8\v3.00\pic\sources\c99\common\doprnt.c: 1210:         whi
      +                          le (!done) {
  2434   002590  518C               	movf	vfpfcnvrt@done& (0+255),w,b
  2435   002592  B4D8               	btfsc	status,2,c
  2436   002594  EFCE  F012         	goto	u7061
  2437   002598  EFD0  F012         	goto	u7060
  2438   00259C                     u7061:
  2439   00259C  EFB9  F012         	goto	l4951
  2440   0025A0                     u7060:
  2441   0025A0                     
  2442                           ; BSR set to: 0
  2443                           ;C:\Program Files\Microchip\xc8\v3.00\pic\sources\c99\common\doprnt.c: 1256:   width = r
      +                          ead_prec_or_width(fmt, ap);
  2444   0025A0  C056  F001         	movff	vfpfcnvrt@fmt,read_prec_or_width@fmt
  2445   0025A4  C057  F002         	movff	vfpfcnvrt@ap,read_prec_or_width@ap
  2446   0025A8  EC8F  F019         	call	_read_prec_or_width	;wreg free
  2447   0025AC  C001  F0C9         	movff	?_read_prec_or_width,_width
  2448   0025B0  C002  F0CA         	movff	?_read_prec_or_width+1,_width+1
  2449   0025B4                     
  2450                           ;C:\Program Files\Microchip\xc8\v3.00\pic\sources\c99\common\doprnt.c: 1257:   if (width
      +                           < 0) {
  2451   0025B4  0100               	movlb	0	; () banked
  2452   0025B6  BFCA               	btfsc	(_width+1)& (0+255),7,b
  2453   0025B8  EFE2  F012         	goto	u7070
  2454   0025BC  EFE0  F012         	goto	u7071
  2455   0025C0                     u7071:
  2456   0025C0  EFE7  F012         	goto	l4961
  2457   0025C4                     u7070:
  2458   0025C4                     
  2459                           ; BSR set to: 0
  2460                           ;C:\Program Files\Microchip\xc8\v3.00\pic\sources\c99\common\doprnt.c: 1258:    flags |=
      +                           (1 << 0);
  2461   0025C4  81CD               	bsf	_flags& (0+255),0,b
  2462                           
  2463                           ;C:\Program Files\Microchip\xc8\v3.00\pic\sources\c99\common\doprnt.c: 1259:    width = 
      +                          -width;
  2464   0025C6  6DC9               	negf	_width& (0+255),b
  2465   0025C8  1FCA               	comf	(_width+1)& (0+255),f,b
  2466   0025CA  B0D8               	btfsc	status,0,c
  2467   0025CC  2BCA               	incf	(_width+1)& (0+255),f,b
  2468   0025CE                     l4961:
  2469                           
  2470                           ; BSR set to: 0
  2471                           ;C:\Program Files\Microchip\xc8\v3.00\pic\sources\c99\common\doprnt.c: 1265:         if 
      +                          ((*fmt)[0] == '.') {
  2472   0025CE  5056               	movf	vfpfcnvrt@fmt^0,w,c
  2473   0025D0  6ED9               	movwf	fsr2l,c
  2474   0025D2  6ADA               	clrf	fsr2h,c
  2475   0025D4  CFDF FFF6          	movff	indf2,tblptrl
  2476   0025D8                     	if	1	;There is more than 1 active tblptr byte
  2477   0025D8  0E08               	movlw	high __smallconst
  2478   0025DA  6EF7               	movwf	tblptrh,c
  2479   0025DC                     	endif
  2480   0025DC                     	if	0	;tblptru may be non-zero
  2481   0025DC                     	endif
  2482   0025DC                     	if	0	;tblptru may be non-zero
  2483   0025DC                     	endif
  2484   0025DC  0008               	tblrd		*
  2485   0025DE  50F5               	movf	tablat,w,c
  2486   0025E0  0A2E               	xorlw	46
  2487   0025E2  A4D8               	btfss	status,2,c
  2488   0025E4  EFF6  F012         	goto	u7081
  2489   0025E8  EFF8  F012         	goto	u7080
  2490   0025EC                     u7081:
  2491   0025EC  EF06  F013         	goto	l4967
  2492   0025F0                     u7080:
  2493   0025F0                     
  2494                           ; BSR set to: 0
  2495                           ;C:\Program Files\Microchip\xc8\v3.00\pic\sources\c99\common\doprnt.c: 1266:            
      +                           ++*fmt;
  2496   0025F0  5056               	movf	vfpfcnvrt@fmt^0,w,c
  2497   0025F2  6ED9               	movwf	fsr2l,c
  2498   0025F4  6ADA               	clrf	fsr2h,c
  2499   0025F6  2ADF               	incf	indf2,f,c
  2500   0025F8                     
  2501                           ; BSR set to: 0
  2502                           ;C:\Program Files\Microchip\xc8\v3.00\pic\sources\c99\common\doprnt.c: 1267:    prec = r
      +                          ead_prec_or_width(fmt, ap);
  2503   0025F8  C056  F001         	movff	vfpfcnvrt@fmt,read_prec_or_width@fmt
  2504   0025FC  C057  F002         	movff	vfpfcnvrt@ap,read_prec_or_width@ap
  2505   002600  EC8F  F019         	call	_read_prec_or_width	;wreg free
  2506   002604  C001  F0CB         	movff	?_read_prec_or_width,_prec
  2507   002608  C002  F0CC         	movff	?_read_prec_or_width+1,_prec+1
  2508   00260C                     l4967:
  2509                           
  2510                           ;C:\Program Files\Microchip\xc8\v3.00\pic\sources\c99\common\doprnt.c: 1291:   cp = *fmt
      +                          ;
  2511   00260C  5056               	movf	vfpfcnvrt@fmt^0,w,c
  2512   00260E  6ED9               	movwf	fsr2l,c
  2513   002610  6ADA               	clrf	fsr2h,c
  2514   002612  50DF               	movf	indf2,w,c
  2515   002614  0100               	movlb	0	; () banked
  2516   002616  6F92               	movwf	vfpfcnvrt@cp& (0+255),b
  2517   002618                     
  2518                           ; BSR set to: 0
  2519                           ;C:\Program Files\Microchip\xc8\v3.00\pic\sources\c99\common\doprnt.c: 1361:   if (*cp =
      +                          = 'd' || *cp == 'i') {
  2520   002618  C092  FFF6         	movff	vfpfcnvrt@cp,tblptrl
  2521   00261C                     	if	1	;There is more than 1 active tblptr byte
  2522   00261C  0E08               	movlw	high __smallconst
  2523   00261E  6EF7               	movwf	tblptrh,c
  2524   002620                     	endif
  2525   002620                     	if	0	;tblptru may be non-zero
  2526   002620                     	endif
  2527   002620                     	if	0	;tblptru may be non-zero
  2528   002620                     	endif
  2529   002620  0008               	tblrd		*
  2530   002622  50F5               	movf	tablat,w,c
  2531   002624  0A64               	xorlw	100
  2532   002626  B4D8               	btfsc	status,2,c
  2533   002628  EF18  F013         	goto	u7091
  2534   00262C  EF1A  F013         	goto	u7090
  2535   002630                     u7091:
  2536   002630  EF28  F013         	goto	l4973
  2537   002634                     u7090:
  2538   002634                     
  2539                           ; BSR set to: 0
  2540   002634  C092  FFF6         	movff	vfpfcnvrt@cp,tblptrl
  2541   002638                     	if	1	;There is more than 1 active tblptr byte
  2542   002638  0E08               	movlw	high __smallconst
  2543   00263A  6EF7               	movwf	tblptrh,c
  2544   00263C                     	endif
  2545   00263C                     	if	0	;tblptru may be non-zero
  2546   00263C                     	endif
  2547   00263C                     	if	0	;tblptru may be non-zero
  2548   00263C                     	endif
  2549   00263C  0008               	tblrd		*
  2550   00263E  50F5               	movf	tablat,w,c
  2551   002640  0A69               	xorlw	105
  2552   002642  A4D8               	btfss	status,2,c
  2553   002644  EF26  F013         	goto	u7101
  2554   002648  EF28  F013         	goto	u7100
  2555   00264C                     u7101:
  2556   00264C  EF43  F013         	goto	l4981
  2557   002650                     u7100:
  2558   002650                     l4973:
  2559                           
  2560                           ; BSR set to: 0
  2561                           ;C:\Program Files\Microchip\xc8\v3.00\pic\sources\c99\common\doprnt.c: 1404:    convarg.
      +                          sint = (vfpf_sint_t)(int)(*(int *)__va_arg(*(int **)ap, (int)0));
  2562   002650  5057               	movf	vfpfcnvrt@ap^0,w,c
  2563   002652  6ED9               	movwf	fsr2l,c
  2564   002654  6ADA               	clrf	fsr2h,c
  2565   002656  0E02               	movlw	2
  2566   002658  26DF               	addwf	indf2,f,c
  2567   00265A  5CDF               	subwf	indf2,w,c
  2568   00265C  6ED9               	movwf	fsr2l,c
  2569   00265E  6ADA               	clrf	fsr2h,c
  2570   002660  CFDE F08D          	movff	postinc2,vfpfcnvrt@convarg
  2571   002664  CFDE F08E          	movff	postinc2,vfpfcnvrt@convarg+1
  2572   002668                     
  2573                           ; BSR set to: 0
  2574                           ;C:\Program Files\Microchip\xc8\v3.00\pic\sources\c99\common\doprnt.c: 1406:    *fmt = c
      +                          p+1;
  2575   002668  5056               	movf	vfpfcnvrt@fmt^0,w,c
  2576   00266A  6ED9               	movwf	fsr2l,c
  2577   00266C  6ADA               	clrf	fsr2h,c
  2578   00266E  2992               	incf	vfpfcnvrt@cp& (0+255),w,b
  2579   002670  6EDF               	movwf	indf2,c
  2580   002672                     
  2581                           ; BSR set to: 0
  2582                           ;C:\Program Files\Microchip\xc8\v3.00\pic\sources\c99\common\doprnt.c: 1432:    return (
      +                          void) dtoa(fp, convarg.sint);;	Return value of _vfpfcnvrt is never used
  2583   002672  C055  F017         	movff	vfpfcnvrt@fp,dtoa@fp
  2584   002676  C08D  F018         	movff	vfpfcnvrt@convarg,dtoa@d
  2585   00267A  C08E  F019         	movff	vfpfcnvrt@convarg+1,dtoa@d+1
  2586   00267E  ECD0  F015         	call	_dtoa	;wreg free
  2587   002682  EFEC  F013         	goto	l938
  2588   002686                     l4981:
  2589                           
  2590                           ; BSR set to: 0
  2591                           ;C:\Program Files\Microchip\xc8\v3.00\pic\sources\c99\common\doprnt.c: 1689:   cp = *fmt
      +                          ;
  2592   002686  5056               	movf	vfpfcnvrt@fmt^0,w,c
  2593   002688  6ED9               	movwf	fsr2l,c
  2594   00268A  6ADA               	clrf	fsr2h,c
  2595   00268C  50DF               	movf	indf2,w,c
  2596   00268E  6F92               	movwf	vfpfcnvrt@cp& (0+255),b
  2597   002690                     
  2598                           ; BSR set to: 0
  2599                           ;C:\Program Files\Microchip\xc8\v3.00\pic\sources\c99\common\doprnt.c: 1690:   c = *cp;
  2600   002690  C092  FFF6         	movff	vfpfcnvrt@cp,tblptrl
  2601   002694                     	if	1	;There is more than 1 active tblptr byte
  2602   002694  0E08               	movlw	high __smallconst
  2603   002696  6EF7               	movwf	tblptrh,c
  2604   002698                     	endif
  2605   002698                     	if	0	;tblptru may be non-zero
  2606   002698                     	endif
  2607   002698                     	if	0	;tblptru may be non-zero
  2608   002698                     	endif
  2609   002698  0008               	tblrd		*
  2610   00269A  CFF5 F091          	movff	tablat,vfpfcnvrt@c
  2611                           
  2612                           ;C:\Program Files\Microchip\xc8\v3.00\pic\sources\c99\common\doprnt.c: 1691:   switch(c)
      +                           {
  2613   00269E  EF5B  F013         	goto	l4991
  2614   0026A2                     l4985:
  2615                           
  2616                           ; BSR set to: 0
  2617                           ;C:\Program Files\Microchip\xc8\v3.00\pic\sources\c99\common\doprnt.c: 1695:     cp++;
  2618   0026A2  2B92               	incf	vfpfcnvrt@cp& (0+255),f,b
  2619                           
  2620                           ;C:\Program Files\Microchip\xc8\v3.00\pic\sources\c99\common\doprnt.c: 1696:     break;
  2621   0026A4  EF6A  F013         	goto	l4993
  2622   0026A8                     l4987:
  2623                           
  2624                           ; BSR set to: 0
  2625                           ;C:\Program Files\Microchip\xc8\v3.00\pic\sources\c99\common\doprnt.c: 1721:     c = 'l'
      +                          ;
  2626   0026A8  0E6C               	movlw	108
  2627   0026AA  6F91               	movwf	vfpfcnvrt@c& (0+255),b
  2628                           
  2629                           ;C:\Program Files\Microchip\xc8\v3.00\pic\sources\c99\common\doprnt.c: 1722:     break;
  2630   0026AC  EF6A  F013         	goto	l4993
  2631   0026B0                     l944:
  2632                           
  2633                           ; BSR set to: 0
  2634                           ;C:\Program Files\Microchip\xc8\v3.00\pic\sources\c99\common\doprnt.c: 1724:     c = 0;
  2635   0026B0  6B91               	clrf	vfpfcnvrt@c& (0+255),b
  2636                           
  2637                           ;C:\Program Files\Microchip\xc8\v3.00\pic\sources\c99\common\doprnt.c: 1725:     break;
  2638   0026B2  EF6A  F013         	goto	l4993
  2639   0026B6                     l4991:
  2640                           
  2641                           ; BSR set to: 0
  2642   0026B6  5191               	movf	vfpfcnvrt@c& (0+255),w,b
  2643                           
  2644                           ; Switch size 1, requested type "simple"
  2645                           ; Number of cases is 3, Range of values is 76 to 108
  2646                           ; switch strategies available:
  2647                           ; Name         Instructions Cycles
  2648                           ; simple_byte           10     6 (average)
  2649                           ;	Chosen strategy is simple_byte
  2650   0026B8  0A4C               	xorlw	76	; case 76
  2651   0026BA  B4D8               	btfsc	status,2,c
  2652   0026BC  EF51  F013         	goto	l4985
  2653   0026C0  0A2A               	xorlw	42	; case 102
  2654   0026C2  B4D8               	btfsc	status,2,c
  2655   0026C4  EF54  F013         	goto	l4987
  2656   0026C8  0A0A               	xorlw	10	; case 108
  2657   0026CA  B4D8               	btfsc	status,2,c
  2658   0026CC  EF51  F013         	goto	l4985
  2659   0026D0  EF58  F013         	goto	l944
  2660   0026D4                     l4993:
  2661                           
  2662                           ; BSR set to: 0
  2663   0026D4  C092  FFF6         	movff	vfpfcnvrt@cp,tblptrl
  2664   0026D8                     	if	1	;There is more than 1 active tblptr byte
  2665   0026D8  0E08               	movlw	high __smallconst
  2666   0026DA  6EF7               	movwf	tblptrh,c
  2667   0026DC                     	endif
  2668   0026DC                     	if	0	;tblptru may be non-zero
  2669   0026DC                     	endif
  2670   0026DC                     	if	0	;tblptru may be non-zero
  2671   0026DC                     	endif
  2672   0026DC  0008               	tblrd		*
  2673   0026DE  50F5               	movf	tablat,w,c
  2674   0026E0  0A66               	xorlw	102
  2675   0026E2  A4D8               	btfss	status,2,c
  2676   0026E4  EF76  F013         	goto	u7111
  2677   0026E8  EF78  F013         	goto	u7110
  2678   0026EC                     u7111:
  2679   0026EC  EFD5  F013         	goto	l5013
  2680   0026F0                     u7110:
  2681   0026F0  EFA2  F013         	goto	l5001
  2682   0026F4                     l4995:
  2683                           
  2684                           ; BSR set to: 0
  2685                           ;C:\Program Files\Microchip\xc8\v3.00\pic\sources\c99\common\doprnt.c: 1756:      convar
      +                          g.f = (long double)(*(double *)__va_arg(*(double **)ap, (double)0));
  2686   0026F4  5057               	movf	vfpfcnvrt@ap^0,w,c
  2687   0026F6  6ED9               	movwf	fsr2l,c
  2688   0026F8  6ADA               	clrf	fsr2h,c
  2689   0026FA  CFDF F058          	movff	indf2,??_vfpfcnvrt
  2690   0026FE  0E04               	movlw	4
  2691   002700  26DF               	addwf	indf2,f,c
  2692   002702  5058               	movf	??_vfpfcnvrt^0,w,c
  2693   002704  6ED9               	movwf	fsr2l,c
  2694   002706  6ADA               	clrf	fsr2h,c
  2695   002708  CFDE F08D          	movff	postinc2,vfpfcnvrt@convarg
  2696   00270C  CFDE F08E          	movff	postinc2,vfpfcnvrt@convarg+1
  2697   002710  CFDE F08F          	movff	postinc2,vfpfcnvrt@convarg+2
  2698   002714  CFDE F090          	movff	postinc2,vfpfcnvrt@convarg+3
  2699                           
  2700                           ;C:\Program Files\Microchip\xc8\v3.00\pic\sources\c99\common\doprnt.c: 1757:      break;
  2701   002718  EFAD  F013         	goto	l5003
  2702   00271C                     l4997:
  2703                           
  2704                           ; BSR set to: 0
  2705                           ;C:\Program Files\Microchip\xc8\v3.00\pic\sources\c99\common\doprnt.c: 1759:      convar
      +                          g.f = (long double)(*(long double *)__va_arg(*(long double **)ap, (long double)0));
  2706   00271C  5057               	movf	vfpfcnvrt@ap^0,w,c
  2707   00271E  6ED9               	movwf	fsr2l,c
  2708   002720  6ADA               	clrf	fsr2h,c
  2709   002722  CFDF F058          	movff	indf2,??_vfpfcnvrt
  2710   002726  0E04               	movlw	4
  2711   002728  26DF               	addwf	indf2,f,c
  2712   00272A  5058               	movf	??_vfpfcnvrt^0,w,c
  2713   00272C  6ED9               	movwf	fsr2l,c
  2714   00272E  6ADA               	clrf	fsr2h,c
  2715   002730  CFDE F08D          	movff	postinc2,vfpfcnvrt@convarg
  2716   002734  CFDE F08E          	movff	postinc2,vfpfcnvrt@convarg+1
  2717   002738  CFDE F08F          	movff	postinc2,vfpfcnvrt@convarg+2
  2718   00273C  CFDE F090          	movff	postinc2,vfpfcnvrt@convarg+3
  2719                           
  2720                           ;C:\Program Files\Microchip\xc8\v3.00\pic\sources\c99\common\doprnt.c: 1760:      break;
  2721   002740  EFAD  F013         	goto	l5003
  2722   002744                     l5001:
  2723                           
  2724                           ; BSR set to: 0
  2725   002744  5191               	movf	vfpfcnvrt@c& (0+255),w,b
  2726                           
  2727                           ; Switch size 1, requested type "simple"
  2728                           ; Number of cases is 2, Range of values is 76 to 108
  2729                           ; switch strategies available:
  2730                           ; Name         Instructions Cycles
  2731                           ; simple_byte            7     4 (average)
  2732                           ;	Chosen strategy is simple_byte
  2733   002746  0A4C               	xorlw	76	; case 76
  2734   002748  B4D8               	btfsc	status,2,c
  2735   00274A  EF8E  F013         	goto	l4997
  2736   00274E  0A20               	xorlw	32	; case 108
  2737   002750  B4D8               	btfsc	status,2,c
  2738   002752  EF7A  F013         	goto	l4995
  2739   002756  EFAD  F013         	goto	l5003
  2740   00275A                     l5003:
  2741                           
  2742                           ; BSR set to: 0
  2743                           ;C:\Program Files\Microchip\xc8\v3.00\pic\sources\c99\common\doprnt.c: 1762:    *fmt = c
      +                          p+1;
  2744   00275A  5056               	movf	vfpfcnvrt@fmt^0,w,c
  2745   00275C  6ED9               	movwf	fsr2l,c
  2746   00275E  6ADA               	clrf	fsr2h,c
  2747   002760  2992               	incf	vfpfcnvrt@cp& (0+255),w,b
  2748   002762  6EDF               	movwf	indf2,c
  2749                           
  2750                           ;C:\Program Files\Microchip\xc8\v3.00\pic\sources\c99\common\doprnt.c: 1763:    switch (
      +                          *cp) {
  2751   002764  EFC9  F013         	goto	l5011
  2752   002768                     l5005:
  2753                           
  2754                           ; BSR set to: 0
  2755                           ;C:\Program Files\Microchip\xc8\v3.00\pic\sources\c99\common\doprnt.c: 1790:      return
      +                           (void) efgtoa(fp, convarg.f, *cp);;	Return value of _vfpfcnvrt is never used
  2756   002768  C055  F04D         	movff	vfpfcnvrt@fp,efgtoa@fp
  2757   00276C  C08D  F04E         	movff	vfpfcnvrt@convarg,efgtoa@f
  2758   002770  C08E  F04F         	movff	vfpfcnvrt@convarg+1,efgtoa@f+1
  2759   002774  C08F  F050         	movff	vfpfcnvrt@convarg+2,efgtoa@f+2
  2760   002778  C090  F051         	movff	vfpfcnvrt@convarg+3,efgtoa@f+3
  2761   00277C  C092  FFF6         	movff	vfpfcnvrt@cp,tblptrl
  2762   002780                     	if	1	;There is more than 1 active tblptr byte
  2763   002780  0E08               	movlw	high __smallconst
  2764   002782  6EF7               	movwf	tblptrh,c
  2765   002784                     	endif
  2766   002784                     	if	0	;tblptru may be non-zero
  2767   002784                     	endif
  2768   002784                     	if	0	;tblptru may be non-zero
  2769   002784                     	endif
  2770   002784  0008               	tblrd		*
  2771   002786  CFF5 F052          	movff	tablat,efgtoa@c
  2772   00278A  EC44  F004         	call	_efgtoa	;wreg free
  2773   00278E  EFEC  F013         	goto	l938
  2774   002792                     l5011:
  2775                           
  2776                           ; BSR set to: 0
  2777   002792  C092  FFF6         	movff	vfpfcnvrt@cp,tblptrl
  2778   002796                     	if	1	;There is more than 1 active tblptr byte
  2779   002796  0E08               	movlw	high __smallconst
  2780   002798  6EF7               	movwf	tblptrh,c
  2781   00279A                     	endif
  2782   00279A                     	if	0	;tblptru may be non-zero
  2783   00279A                     	endif
  2784   00279A                     	if	0	;tblptru may be non-zero
  2785   00279A                     	endif
  2786   00279A  0008               	tblrd		*
  2787   00279C  50F5               	movf	tablat,w,c
  2788                           
  2789                           ; Switch size 1, requested type "simple"
  2790                           ; Number of cases is 1, Range of values is 102 to 102
  2791                           ; switch strategies available:
  2792                           ; Name         Instructions Cycles
  2793                           ; simple_byte            4     3 (average)
  2794                           ;	Chosen strategy is simple_byte
  2795   00279E  0A66               	xorlw	102	; case 102
  2796   0027A0  B4D8               	btfsc	status,2,c
  2797   0027A2  EFB4  F013         	goto	l5005
  2798   0027A6  EFD5  F013         	goto	l5013
  2799   0027AA                     l5013:
  2800                           
  2801                           ;C:\Program Files\Microchip\xc8\v3.00\pic\sources\c99\common\doprnt.c: 1806:         ++*
      +                          fmt;
  2802   0027AA  5056               	movf	vfpfcnvrt@fmt^0,w,c
  2803   0027AC  6ED9               	movwf	fsr2l,c
  2804   0027AE  6ADA               	clrf	fsr2h,c
  2805   0027B0  2ADF               	incf	indf2,f,c
  2806   0027B2  EFEC  F013         	goto	l938
  2807   0027B6                     l5017:
  2808                           
  2809                           ;C:\Program Files\Microchip\xc8\v3.00\pic\sources\c99\common\doprnt.c: 1811:     fputc((
      +                          int)(*fmt)[0], fp);
  2810   0027B6  5056               	movf	vfpfcnvrt@fmt^0,w,c
  2811   0027B8  6ED9               	movwf	fsr2l,c
  2812   0027BA  6ADA               	clrf	fsr2h,c
  2813   0027BC  CFDF FFF6          	movff	indf2,tblptrl
  2814   0027C0                     	if	1	;There is more than 1 active tblptr byte
  2815   0027C0  0E08               	movlw	high __smallconst
  2816   0027C2  6EF7               	movwf	tblptrh,c
  2817   0027C4                     	endif
  2818   0027C4                     	if	0	;tblptru may be non-zero
  2819   0027C4                     	endif
  2820   0027C4                     	if	0	;tblptru may be non-zero
  2821   0027C4                     	endif
  2822   0027C4  0008               	tblrd		*
  2823   0027C6  50F5               	movf	tablat,w,c
  2824   0027C8  6E01               	movwf	fputc@c^0,c
  2825   0027CA  6A02               	clrf	(fputc@c+1)^0,c
  2826   0027CC  C055  F003         	movff	vfpfcnvrt@fp,fputc@fp
  2827   0027D0  EC3A  F019         	call	_fputc	;wreg free
  2828   0027D4  EFD5  F013         	goto	l5013
  2829   0027D8                     l938:
  2830   0027D8  0012               	return		;funcret
  2831   0027DA                     __end_of_vfpfcnvrt:
  2832                           	callstack 0
  2833                           
  2834 ;; *************** function _read_prec_or_width *****************
  2835 ;; Defined at:
  2836 ;;		line 1158 in file "C:\Program Files\Microchip\xc8\v3.00\pic\sources\c99\common\doprnt.c"
  2837 ;; Parameters:    Size  Location     Type
  2838 ;;  fmt             1    0[COMRAM] PTR PTR const unsigned c
  2839 ;;		 -> vfprintf@cfmt(1), 
  2840 ;;  ap              1    1[COMRAM] PTR PTR void [1]
  2841 ;;		 -> sprintf@ap(1), 
  2842 ;; Auto vars:     Size  Location     Type
  2843 ;;  c               1    4[COMRAM] unsigned char 
  2844 ;;  n               2    5[COMRAM] int 
  2845 ;; Return value:  Size  Location     Type
  2846 ;;                  2    0[COMRAM] int 
  2847 ;; Registers used:
  2848 ;;		wreg, fsr2l, fsr2h, status,2, status,0, tblptrl, tblptrh, tblptru, prodl, prodh
  2849 ;; Tracked objects:
  2850 ;;		On entry : 0/0
  2851 ;;		On exit  : 0/0
  2852 ;;		Unchanged: 0/0
  2853 ;; Data sizes:     COMRAM   BANK0   BANK1   BANK2   BANK3   BANK4   BANK5   BANK6   BANK7
  2854 ;;      Params:         2       0       0       0       0       0       0       0       0
  2855 ;;      Locals:         3       0       0       0       0       0       0       0       0
  2856 ;;      Temps:          2       0       0       0       0       0       0       0       0
  2857 ;;      Totals:         7       0       0       0       0       0       0       0       0
  2858 ;;Total ram usage:        7 bytes
  2859 ;; Hardware stack levels used: 1
  2860 ;; Hardware stack levels required when called: 1
  2861 ;; This function calls:
  2862 ;;		Nothing
  2863 ;; This function is called by:
  2864 ;;		_vfpfcnvrt
  2865 ;; This function uses a non-reentrant model
  2866 ;;
  2867                           
  2868                           	psect	text4
  2869   00331E                     __ptext4:
  2870                           	callstack 0
  2871   00331E                     _read_prec_or_width:
  2872                           	callstack 26
  2873   00331E                     
  2874                           ;C:\Program Files\Microchip\xc8\v3.00\pic\sources\c99\common\doprnt.c: 1159:     int n =
      +                           0;
  2875   00331E  0E00               	movlw	0
  2876   003320  6E07               	movwf	(read_prec_or_width@n+1)^0,c
  2877   003322  0E00               	movlw	0
  2878   003324  6E06               	movwf	read_prec_or_width@n^0,c
  2879   003326                     
  2880                           ;C:\Program Files\Microchip\xc8\v3.00\pic\sources\c99\common\doprnt.c: 1160:     if ((*f
      +                          mt)[0] == '*') {
  2881   003326  5001               	movf	read_prec_or_width@fmt^0,w,c
  2882   003328  6ED9               	movwf	fsr2l,c
  2883   00332A  6ADA               	clrf	fsr2h,c
  2884   00332C  CFDF FFF6          	movff	indf2,tblptrl
  2885   003330                     	if	1	;There is more than 1 active tblptr byte
  2886   003330  0E08               	movlw	high __smallconst
  2887   003332  6EF7               	movwf	tblptrh,c
  2888   003334                     	endif
  2889   003334                     	if	0	;tblptru may be non-zero
  2890   003334                     	endif
  2891   003334                     	if	0	;tblptru may be non-zero
  2892   003334                     	endif
  2893   003334  0008               	tblrd		*
  2894   003336  50F5               	movf	tablat,w,c
  2895   003338  0A2A               	xorlw	42
  2896   00333A  A4D8               	btfss	status,2,c
  2897   00333C  EFA2  F019         	goto	u7031
  2898   003340  EFA4  F019         	goto	u7030
  2899   003344                     u7031:
  2900   003344  EFC9  F019         	goto	l4931
  2901   003348                     u7030:
  2902   003348                     
  2903                           ;C:\Program Files\Microchip\xc8\v3.00\pic\sources\c99\common\doprnt.c: 1161:         ++*
      +                          fmt;
  2904   003348  5001               	movf	read_prec_or_width@fmt^0,w,c
  2905   00334A  6ED9               	movwf	fsr2l,c
  2906   00334C  6ADA               	clrf	fsr2h,c
  2907   00334E  2ADF               	incf	indf2,f,c
  2908   003350                     
  2909                           ;C:\Program Files\Microchip\xc8\v3.00\pic\sources\c99\common\doprnt.c: 1162:         n =
      +                           (*(int *)__va_arg(*(int **)*ap, (int)0));
  2910   003350  5002               	movf	read_prec_or_width@ap^0,w,c
  2911   003352  6ED9               	movwf	fsr2l,c
  2912   003354  6ADA               	clrf	fsr2h,c
  2913   003356  0E02               	movlw	2
  2914   003358  26DF               	addwf	indf2,f,c
  2915   00335A  5CDF               	subwf	indf2,w,c
  2916   00335C  6ED9               	movwf	fsr2l,c
  2917   00335E  6ADA               	clrf	fsr2h,c
  2918   003360  CFDE F006          	movff	postinc2,read_prec_or_width@n
  2919   003364  CFDE F007          	movff	postinc2,read_prec_or_width@n+1
  2920                           
  2921                           ;C:\Program Files\Microchip\xc8\v3.00\pic\sources\c99\common\doprnt.c: 1163:     } else 
      +                          {
  2922   003368  EFDC  F019         	goto	l918
  2923   00336C                     l4927:
  2924                           
  2925                           ;C:\Program Files\Microchip\xc8\v3.00\pic\sources\c99\common\doprnt.c: 1166:            
      +                           n = n * 10 + c;
  2926   00336C  0E0A               	movlw	10
  2927   00336E  0206               	mulwf	read_prec_or_width@n^0,c
  2928   003370  CFF3 F003          	movff	prodl,??_read_prec_or_width
  2929   003374  CFF4 F004          	movff	prodh,??_read_prec_or_width+1
  2930   003378  0207               	mulwf	(read_prec_or_width@n+1)^0,c
  2931   00337A  50F3               	movf	prodl,w,c
  2932   00337C  2604               	addwf	(??_read_prec_or_width+1)^0,f,c
  2933   00337E  5005               	movf	read_prec_or_width@c^0,w,c
  2934   003380  2403               	addwf	??_read_prec_or_width^0,w,c
  2935   003382  6E06               	movwf	read_prec_or_width@n^0,c
  2936   003384  0E00               	movlw	0
  2937   003386  2004               	addwfc	(??_read_prec_or_width+1)^0,w,c
  2938   003388  6E07               	movwf	(read_prec_or_width@n+1)^0,c
  2939   00338A                     
  2940                           ;C:\Program Files\Microchip\xc8\v3.00\pic\sources\c99\common\doprnt.c: 1167:            
      +                           ++*fmt;
  2941   00338A  5001               	movf	read_prec_or_width@fmt^0,w,c
  2942   00338C  6ED9               	movwf	fsr2l,c
  2943   00338E  6ADA               	clrf	fsr2h,c
  2944   003390  2ADF               	incf	indf2,f,c
  2945   003392                     l4931:
  2946                           
  2947                           ;C:\Program Files\Microchip\xc8\v3.00\pic\sources\c99\common\doprnt.c: 1165:         whi
      +                          le ((c = ((unsigned)(*fmt)[0]) - '0') < 10) {
  2948   003392  5001               	movf	read_prec_or_width@fmt^0,w,c
  2949   003394  6ED9               	movwf	fsr2l,c
  2950   003396  6ADA               	clrf	fsr2h,c
  2951   003398  CFDF FFF6          	movff	indf2,tblptrl
  2952   00339C                     	if	1	;There is more than 1 active tblptr byte
  2953   00339C  0E08               	movlw	high __smallconst
  2954   00339E  6EF7               	movwf	tblptrh,c
  2955   0033A0                     	endif
  2956   0033A0                     	if	0	;tblptru may be non-zero
  2957   0033A0                     	endif
  2958   0033A0                     	if	0	;tblptru may be non-zero
  2959   0033A0                     	endif
  2960   0033A0  0008               	tblrd		*
  2961   0033A2  50F5               	movf	tablat,w,c
  2962   0033A4  0FD0               	addlw	208
  2963   0033A6  6E05               	movwf	read_prec_or_width@c^0,c
  2964   0033A8  0E09               	movlw	9
  2965   0033AA  6405               	cpfsgt	read_prec_or_width@c^0,c
  2966   0033AC  EFDA  F019         	goto	u7041
  2967   0033B0  EFDC  F019         	goto	u7040
  2968   0033B4                     u7041:
  2969   0033B4  EFB6  F019         	goto	l4927
  2970   0033B8                     u7040:
  2971   0033B8                     l918:
  2972                           
  2973                           ;C:\Program Files\Microchip\xc8\v3.00\pic\sources\c99\common\doprnt.c: 1170:     return 
      +                          n;
  2974   0033B8  C006  F001         	movff	read_prec_or_width@n,?_read_prec_or_width
  2975   0033BC  C007  F002         	movff	read_prec_or_width@n+1,?_read_prec_or_width+1
  2976   0033C0  0012               	return		;funcret
  2977   0033C2                     __end_of_read_prec_or_width:
  2978                           	callstack 0
  2979                           
  2980 ;; *************** function _efgtoa *****************
  2981 ;; Defined at:
  2982 ;;		line 587 in file "C:\Program Files\Microchip\xc8\v3.00\pic\sources\c99\common\doprnt.c"
  2983 ;; Parameters:    Size  Location     Type
  2984 ;;  fp              1   76[COMRAM] PTR struct _IO_FILE
  2985 ;;		 -> sprintf@f(11), 
  2986 ;;  f               4   77[COMRAM] PTR struct _IO_FILE
  2987 ;;  c               1   81[COMRAM] unsigned char 
  2988 ;; Auto vars:     Size  Location     Type
  2989 ;;  u               4   40[BANK0 ] struct flui
  2990 ;;  g               4   34[BANK0 ] struct flui
  2991 ;;  l               4   27[BANK0 ] struct flui
  2992 ;;  h               4   23[BANK0 ] struct flui
  2993 ;;  ou              4   17[BANK0 ] struct flui
  2994 ;;  n               2   38[BANK0 ] int 
  2995 ;;  i               2   31[BANK0 ] int 
  2996 ;;  w               2   21[BANK0 ] int 
  2997 ;;  e               2   15[BANK0 ] int 
  2998 ;;  m               2   13[BANK0 ] int 
  2999 ;;  d               2   11[BANK0 ] int 
  3000 ;;  t               2    4[BANK0 ] int 
  3001 ;;  p               2    2[BANK0 ] int 
  3002 ;;  ne              2    0[BANK0 ] int 
  3003 ;;  sign            1   33[BANK0 ] unsigned char 
  3004 ;;  nmode           1   10[BANK0 ] unsigned char 
  3005 ;;  mode            1    9[BANK0 ] unsigned char 
  3006 ;;  pp              1    8[BANK0 ] unsigned char 
  3007 ;;  esign           1    0        unsigned char 
  3008 ;; Return value:  Size  Location     Type
  3009 ;;                  1    wreg      void 
  3010 ;; Registers used:
  3011 ;;		wreg, fsr1l, fsr1h, fsr2l, fsr2h, status,2, status,0, tblptrl, tblptrh, tblptru, prodl, prodh, cstack
  3012 ;; Tracked objects:
  3013 ;;		On entry : 0/0
  3014 ;;		On exit  : 0/0
  3015 ;;		Unchanged: 0/0
  3016 ;; Data sizes:     COMRAM   BANK0   BANK1   BANK2   BANK3   BANK4   BANK5   BANK6   BANK7
  3017 ;;      Params:         6       0       0       0       0       0       0       0       0
  3018 ;;      Locals:         0      44       0       0       0       0       0       0       0
  3019 ;;      Temps:          2       0       0       0       0       0       0       0       0
  3020 ;;      Totals:         8      44       0       0       0       0       0       0       0
  3021 ;;Total ram usage:       52 bytes
  3022 ;; Hardware stack levels used: 1
  3023 ;; Hardware stack levels required when called: 5
  3024 ;; This function calls:
  3025 ;;		___fladd
  3026 ;;		___fldiv
  3027 ;;		___fleq
  3028 ;;		___flge
  3029 ;;		___flmul
  3030 ;;		___flneg
  3031 ;;		___flsub
  3032 ;;		___fltol
  3033 ;;		___fpclassifyf
  3034 ;;		_floorf
  3035 ;;		_labs
  3036 ;;		_memcpy
  3037 ;;		_pad
  3038 ;;		_strcpy
  3039 ;; This function is called by:
  3040 ;;		_vfpfcnvrt
  3041 ;; This function uses a non-reentrant model
  3042 ;;
  3043                           
  3044                           	psect	text5
  3045   000888                     __ptext5:
  3046                           	callstack 0
  3047   000888                     _efgtoa:
  3048                           	callstack 22
  3049   000888                     
  3050                           ;C:\Program Files\Microchip\xc8\v3.00\pic\sources\c99\common\doprnt.c: 587: static void 
      +                          efgtoa(FILE *fp, long double f, char c);C:\Program Files\Microchip\xc8\v3.00\pic\sources
      +                          \c99\common\doprnt.c: 588: {;C:\Program Files\Microchip\xc8\v3.00\pic\sources\c99\common
      +                          \doprnt.c: 589:     char mode, nmode, pp, sign, esign;;C:\Program Files\Microchip\xc8\v3
      +                          .00\pic\sources\c99\common\doprnt.c: 590:     int d, e, i, m, n, ne, p, t, w;;C:\Program
      +                           Files\Microchip\xc8\v3.00\pic\sources\c99\common\doprnt.c: 591:     long double h, l;
  3051   000888  0100               	movlb	0	; () banked
  3052   00088A  6B81               	clrf	efgtoa@sign& (0+255),b
  3053                           
  3054                           ;C:\Program Files\Microchip\xc8\v3.00\pic\sources\c99\common\doprnt.c: 596:     g.f = f;
  3055   00088C  C04E  F082         	movff	efgtoa@f,efgtoa@g
  3056   000890  C04F  F083         	movff	efgtoa@f+1,efgtoa@g+1
  3057   000894  C050  F084         	movff	efgtoa@f+2,efgtoa@g+2
  3058   000898  C051  F085         	movff	efgtoa@f+3,efgtoa@g+3
  3059   00089C                     
  3060                           ; BSR set to: 0
  3061                           ;C:\Program Files\Microchip\xc8\v3.00\pic\sources\c99\common\doprnt.c: 597:     if (g.f 
      +                          < 0.0) {
  3062   00089C  BF85               	btfsc	(efgtoa@g+3)& (0+255),7,b
  3063   00089E  EF55  F004         	goto	u6680
  3064   0008A2  EF53  F004         	goto	u6681
  3065   0008A6                     u6681:
  3066   0008A6  EF69  F004         	goto	l4695
  3067   0008AA                     u6680:
  3068   0008AA                     
  3069                           ; BSR set to: 0
  3070                           ;C:\Program Files\Microchip\xc8\v3.00\pic\sources\c99\common\doprnt.c: 598:         sign
      +                           = 1;
  3071   0008AA  0E01               	movlw	1
  3072   0008AC  6F81               	movwf	efgtoa@sign& (0+255),b
  3073   0008AE                     
  3074                           ; BSR set to: 0
  3075                           ;C:\Program Files\Microchip\xc8\v3.00\pic\sources\c99\common\doprnt.c: 599:         g.f 
      +                          = -g.f;
  3076   0008AE  C082  F001         	movff	efgtoa@g,___flneg@f1
  3077   0008B2  C083  F002         	movff	efgtoa@g+1,___flneg@f1+1
  3078   0008B6  C084  F003         	movff	efgtoa@g+2,___flneg@f1+2
  3079   0008BA  C085  F004         	movff	efgtoa@g+3,___flneg@f1+3
  3080   0008BE  EC55  F01C         	call	___flneg	;wreg free
  3081   0008C2  C001  F082         	movff	?___flneg,efgtoa@g
  3082   0008C6  C002  F083         	movff	?___flneg+1,efgtoa@g+1
  3083   0008CA  C003  F084         	movff	?___flneg+2,efgtoa@g+2
  3084   0008CE  C004  F085         	movff	?___flneg+3,efgtoa@g+3
  3085   0008D2                     l4695:
  3086                           
  3087                           ;C:\Program Files\Microchip\xc8\v3.00\pic\sources\c99\common\doprnt.c: 603:     n = 0;
  3088   0008D2  0E00               	movlw	0
  3089   0008D4  0100               	movlb	0	; () banked
  3090   0008D6  6F87               	movwf	(efgtoa@n+1)& (0+255),b
  3091   0008D8  0E00               	movlw	0
  3092   0008DA  6F86               	movwf	efgtoa@n& (0+255),b
  3093   0008DC                     
  3094                           ; BSR set to: 0
  3095                           ;C:\Program Files\Microchip\xc8\v3.00\pic\sources\c99\common\doprnt.c: 604:     w = widt
      +                          h;
  3096   0008DC  C0C9  F075         	movff	_width,efgtoa@w
  3097   0008E0  C0CA  F076         	movff	_width+1,efgtoa@w+1
  3098   0008E4                     
  3099                           ; BSR set to: 0
  3100                           ;C:\Program Files\Microchip\xc8\v3.00\pic\sources\c99\common\doprnt.c: 605:     if (sign
  3101   0008E4  5181               	movf	efgtoa@sign& (0+255),w,b
  3102   0008E6  B4D8               	btfsc	status,2,c
  3103   0008E8  EF78  F004         	goto	u6691
  3104   0008EC  EF7A  F004         	goto	u6690
  3105   0008F0                     u6691:
  3106   0008F0  EF8E  F004         	goto	l4709
  3107   0008F4                     u6690:
  3108   0008F4                     
  3109                           ; BSR set to: 0
  3110                           ;C:\Program Files\Microchip\xc8\v3.00\pic\sources\c99\common\doprnt.c: 609:    ) {;C:\Pr
      +                          ogram Files\Microchip\xc8\v3.00\pic\sources\c99\common\doprnt.c: 610:   sign = sign ? '-
      +                          ' : '+';
  3111   0008F4  5181               	movf	efgtoa@sign& (0+255),w,b
  3112   0008F6  A4D8               	btfss	status,2,c
  3113   0008F8  EF80  F004         	goto	u6701
  3114   0008FC  EF82  F004         	goto	u6700
  3115   000900                     u6701:
  3116   000900  EF88  F004         	goto	l4705
  3117   000904                     u6700:
  3118   000904                     
  3119                           ; BSR set to: 0
  3120   000904  0E00               	movlw	0
  3121   000906  6F67               	movwf	(_efgtoa$1341+1)& (0+255),b
  3122   000908  0E2B               	movlw	43
  3123   00090A  6F66               	movwf	_efgtoa$1341& (0+255),b
  3124   00090C  EF8C  F004         	goto	l4707
  3125   000910                     l4705:
  3126                           
  3127                           ; BSR set to: 0
  3128   000910  0E00               	movlw	0
  3129   000912  6F67               	movwf	(_efgtoa$1341+1)& (0+255),b
  3130   000914  0E2D               	movlw	45
  3131   000916  6F66               	movwf	_efgtoa$1341& (0+255),b
  3132   000918                     l4707:
  3133                           
  3134                           ; BSR set to: 0
  3135   000918  C066  F081         	movff	_efgtoa$1341,efgtoa@sign
  3136   00091C                     l4709:
  3137                           
  3138                           ; BSR set to: 0
  3139                           ;C:\Program Files\Microchip\xc8\v3.00\pic\sources\c99\common\doprnt.c: 619:     if (( __
      +                          fpclassifyf(g.f) == 1 )) {
  3140   00091C  C082  F001         	movff	efgtoa@g,___fpclassifyf@x
  3141   000920  C083  F002         	movff	efgtoa@g+1,___fpclassifyf@x+1
  3142   000924  C084  F003         	movff	efgtoa@g+2,___fpclassifyf@x+2
  3143   000928  C085  F004         	movff	efgtoa@g+3,___fpclassifyf@x+3
  3144   00092C  ECAE  F017         	call	___fpclassifyf	;wreg free
  3145   000930  0401               	decf	?___fpclassifyf^0,w,c
  3146   000932  1002               	iorwf	(?___fpclassifyf+1)^0,w,c
  3147   000934  A4D8               	btfss	status,2,c
  3148   000936  EF9F  F004         	goto	u6711
  3149   00093A  EFA1  F004         	goto	u6710
  3150   00093E                     u6711:
  3151   00093E  EFD0  F004         	goto	l4727
  3152   000942                     u6710:
  3153   000942                     
  3154                           ;C:\Program Files\Microchip\xc8\v3.00\pic\sources\c99\common\doprnt.c: 620:   if (sign) 
      +                          {
  3155   000942  0100               	movlb	0	; () banked
  3156   000944  5181               	movf	efgtoa@sign& (0+255),w,b
  3157   000946  B4D8               	btfsc	status,2,c
  3158   000948  EFA8  F004         	goto	u6721
  3159   00094C  EFAA  F004         	goto	u6720
  3160   000950                     u6721:
  3161   000950  EFB3  F004         	goto	l4719
  3162   000954                     u6720:
  3163   000954                     
  3164                           ; BSR set to: 0
  3165                           ;C:\Program Files\Microchip\xc8\v3.00\pic\sources\c99\common\doprnt.c: 621:    dbuf[0] =
      +                           sign;
  3166   000954  C081  F100         	movff	efgtoa@sign,_dbuf
  3167   000958                     
  3168                           ; BSR set to: 0
  3169                           ;C:\Program Files\Microchip\xc8\v3.00\pic\sources\c99\common\doprnt.c: 622:    w--;
  3170   000958  0775               	decf	efgtoa@w& (0+255),f,b
  3171   00095A  A0D8               	btfss	status,0,c
  3172   00095C  0776               	decf	(efgtoa@w+1)& (0+255),f,b
  3173   00095E                     
  3174                           ; BSR set to: 0
  3175                           ;C:\Program Files\Microchip\xc8\v3.00\pic\sources\c99\common\doprnt.c: 623:    n = 1;
  3176   00095E  0E00               	movlw	0
  3177   000960  6F87               	movwf	(efgtoa@n+1)& (0+255),b
  3178   000962  0E01               	movlw	1
  3179   000964  6F86               	movwf	efgtoa@n& (0+255),b
  3180   000966                     l4719:
  3181                           
  3182                           ; BSR set to: 0
  3183                           ;C:\Program Files\Microchip\xc8\v3.00\pic\sources\c99\common\doprnt.c: 631:   {;C:\Progr
      +                          am Files\Microchip\xc8\v3.00\pic\sources\c99\common\doprnt.c: 632:             strcpy(&d
      +                          buf[n], "inf");
  3184   000966  0E00               	movlw	low _dbuf
  3185   000968  2586               	addwf	efgtoa@n& (0+255),w,b
  3186   00096A  6E01               	movwf	strcpy@dest^0,c
  3187   00096C  0E01               	movlw	high _dbuf
  3188   00096E  2187               	addwfc	(efgtoa@n+1)& (0+255),w,b
  3189   000970  6E02               	movwf	(strcpy@dest+1)^0,c
  3190   000972  0E7E               	movlw	low STR_16
  3191   000974  6E03               	movwf	strcpy@src^0,c
  3192   000976  EC1C  F01C         	call	_strcpy	;wreg free
  3193   00097A                     l4721:
  3194                           
  3195                           ;C:\Program Files\Microchip\xc8\v3.00\pic\sources\c99\common\doprnt.c: 633:         };C:
      +                          \Program Files\Microchip\xc8\v3.00\pic\sources\c99\common\doprnt.c: 634:         w -= ((
      +                          sizeof("inf")/sizeof("inf"[0]))-1);
  3196   00097A  0100               	movlb	0	; () banked
  3197   00097C  0EFD               	movlw	253
  3198   00097E  2775               	addwf	efgtoa@w& (0+255),f,b
  3199   000980  0EFF               	movlw	255
  3200   000982  2376               	addwfc	(efgtoa@w+1)& (0+255),f,b
  3201   000984                     
  3202                           ; BSR set to: 0
  3203                           ;C:\Program Files\Microchip\xc8\v3.00\pic\sources\c99\common\doprnt.c: 635:         retu
      +                          rn (void) pad(fp, &dbuf[0], w);
  3204   000984  C04D  F00F         	movff	efgtoa@fp,pad@fp
  3205   000988  0E00               	movlw	low _dbuf
  3206   00098A  6E10               	movwf	pad@buf^0,c
  3207   00098C  0E01               	movlw	high _dbuf
  3208   00098E  6E11               	movwf	(pad@buf+1)^0,c
  3209   000990  C075  F012         	movff	efgtoa@w,pad@p
  3210   000994  C076  F013         	movff	efgtoa@w+1,pad@p+1
  3211   000998  ECE1  F019         	call	_pad	;wreg free
  3212   00099C  EF6A  F009         	goto	l867
  3213   0009A0                     l4727:
  3214                           
  3215                           ;C:\Program Files\Microchip\xc8\v3.00\pic\sources\c99\common\doprnt.c: 637:     if (( __
      +                          fpclassifyf(g.f) == 0 )) {
  3216   0009A0  C082  F001         	movff	efgtoa@g,___fpclassifyf@x
  3217   0009A4  C083  F002         	movff	efgtoa@g+1,___fpclassifyf@x+1
  3218   0009A8  C084  F003         	movff	efgtoa@g+2,___fpclassifyf@x+2
  3219   0009AC  C085  F004         	movff	efgtoa@g+3,___fpclassifyf@x+3
  3220   0009B0  ECAE  F017         	call	___fpclassifyf	;wreg free
  3221   0009B4  5001               	movf	?___fpclassifyf^0,w,c
  3222   0009B6  1002               	iorwf	(?___fpclassifyf+1)^0,w,c
  3223   0009B8  A4D8               	btfss	status,2,c
  3224   0009BA  EFE1  F004         	goto	u6731
  3225   0009BE  EFE3  F004         	goto	u6730
  3226   0009C2                     u6731:
  3227   0009C2  EF01  F005         	goto	l4745
  3228   0009C6                     u6730:
  3229   0009C6                     
  3230                           ;C:\Program Files\Microchip\xc8\v3.00\pic\sources\c99\common\doprnt.c: 638:   if (sign) 
      +                          {
  3231   0009C6  0100               	movlb	0	; () banked
  3232   0009C8  5181               	movf	efgtoa@sign& (0+255),w,b
  3233   0009CA  B4D8               	btfsc	status,2,c
  3234   0009CC  EFEA  F004         	goto	u6741
  3235   0009D0  EFEC  F004         	goto	u6740
  3236   0009D4                     u6741:
  3237   0009D4  EFF5  F004         	goto	l4737
  3238   0009D8                     u6740:
  3239   0009D8                     
  3240                           ; BSR set to: 0
  3241                           ;C:\Program Files\Microchip\xc8\v3.00\pic\sources\c99\common\doprnt.c: 639:    dbuf[0] =
      +                           sign;
  3242   0009D8  C081  F100         	movff	efgtoa@sign,_dbuf
  3243   0009DC                     
  3244                           ; BSR set to: 0
  3245                           ;C:\Program Files\Microchip\xc8\v3.00\pic\sources\c99\common\doprnt.c: 640:    w--;
  3246   0009DC  0775               	decf	efgtoa@w& (0+255),f,b
  3247   0009DE  A0D8               	btfss	status,0,c
  3248   0009E0  0776               	decf	(efgtoa@w+1)& (0+255),f,b
  3249   0009E2                     
  3250                           ; BSR set to: 0
  3251                           ;C:\Program Files\Microchip\xc8\v3.00\pic\sources\c99\common\doprnt.c: 641:    n = 1;
  3252   0009E2  0E00               	movlw	0
  3253   0009E4  6F87               	movwf	(efgtoa@n+1)& (0+255),b
  3254   0009E6  0E01               	movlw	1
  3255   0009E8  6F86               	movwf	efgtoa@n& (0+255),b
  3256   0009EA                     l4737:
  3257                           
  3258                           ; BSR set to: 0
  3259                           ;C:\Program Files\Microchip\xc8\v3.00\pic\sources\c99\common\doprnt.c: 649:   {;C:\Progr
      +                          am Files\Microchip\xc8\v3.00\pic\sources\c99\common\doprnt.c: 650:             strcpy(&d
      +                          buf[n], "nan");
  3260   0009EA  0E00               	movlw	low _dbuf
  3261   0009EC  2586               	addwf	efgtoa@n& (0+255),w,b
  3262   0009EE  6E01               	movwf	strcpy@dest^0,c
  3263   0009F0  0E01               	movlw	high _dbuf
  3264   0009F2  2187               	addwfc	(efgtoa@n+1)& (0+255),w,b
  3265   0009F4  6E02               	movwf	(strcpy@dest+1)^0,c
  3266   0009F6  0E82               	movlw	low STR_19
  3267   0009F8  6E03               	movwf	strcpy@src^0,c
  3268   0009FA  EC1C  F01C         	call	_strcpy	;wreg free
  3269   0009FE  EFBD  F004         	goto	l4721
  3270   000A02                     l4745:
  3271                           
  3272                           ;C:\Program Files\Microchip\xc8\v3.00\pic\sources\c99\common\doprnt.c: 657:     u.f = 1.
      +                          0;
  3273   000A02  0E00               	movlw	0
  3274   000A04  0100               	movlb	0	; () banked
  3275   000A06  6F88               	movwf	efgtoa@u& (0+255),b
  3276   000A08  0E00               	movlw	0
  3277   000A0A  6F89               	movwf	(efgtoa@u+1)& (0+255),b
  3278   000A0C  0E80               	movlw	128
  3279   000A0E  6F8A               	movwf	(efgtoa@u+2)& (0+255),b
  3280   000A10  0E3F               	movlw	63
  3281   000A12  6F8B               	movwf	(efgtoa@u+3)& (0+255),b
  3282                           
  3283                           ;C:\Program Files\Microchip\xc8\v3.00\pic\sources\c99\common\doprnt.c: 658:     e = 0;
  3284   000A14  0E00               	movlw	0
  3285   000A16  6F70               	movwf	(efgtoa@e+1)& (0+255),b
  3286   000A18  0E00               	movlw	0
  3287   000A1A  6F6F               	movwf	efgtoa@e& (0+255),b
  3288   000A1C                     
  3289                           ; BSR set to: 0
  3290                           ;C:\Program Files\Microchip\xc8\v3.00\pic\sources\c99\common\doprnt.c: 659:  if (!(g.f =
      +                          = 0.0)) {
  3291   000A1C  C082  F001         	movff	efgtoa@g,___fleq@ff1
  3292   000A20  C083  F002         	movff	efgtoa@g+1,___fleq@ff1+1
  3293   000A24  C084  F003         	movff	efgtoa@g+2,___fleq@ff1+2
  3294   000A28  C085  F004         	movff	efgtoa@g+3,___fleq@ff1+3
  3295   000A2C  0E00               	movlw	0
  3296   000A2E  6E05               	movwf	___fleq@ff2^0,c
  3297   000A30  0E00               	movlw	0
  3298   000A32  6E06               	movwf	(___fleq@ff2+1)^0,c
  3299   000A34  0E00               	movlw	0
  3300   000A36  6E07               	movwf	(___fleq@ff2+2)^0,c
  3301   000A38  0E00               	movlw	0
  3302   000A3A  6E08               	movwf	(___fleq@ff2+3)^0,c
  3303   000A3C  ECE5  F018         	call	___fleq	;wreg free
  3304   000A40  B0D8               	btfsc	status,0,c
  3305   000A42  EF25  F005         	goto	u6751
  3306   000A46  EF27  F005         	goto	u6750
  3307   000A4A                     u6751:
  3308   000A4A  EF06  F006         	goto	l870
  3309   000A4E                     u6750:
  3310   000A4E  EF34  F005         	goto	l4753
  3311   000A52                     l872:
  3312                           
  3313                           ;C:\Program Files\Microchip\xc8\v3.00\pic\sources\c99\common\doprnt.c: 661:    u = ou;
  3314   000A52  C071  F088         	movff	efgtoa@ou,efgtoa@u
  3315   000A56  C072  F089         	movff	efgtoa@ou+1,efgtoa@u+1
  3316   000A5A  C073  F08A         	movff	efgtoa@ou+2,efgtoa@u+2
  3317   000A5E  C074  F08B         	movff	efgtoa@ou+3,efgtoa@u+3
  3318   000A62                     
  3319                           ;C:\Program Files\Microchip\xc8\v3.00\pic\sources\c99\common\doprnt.c: 662:    ++e;
  3320   000A62  0100               	movlb	0	; () banked
  3321   000A64  4B6F               	infsnz	efgtoa@e& (0+255),f,b
  3322   000A66  2B70               	incf	(efgtoa@e+1)& (0+255),f,b
  3323   000A68                     l4753:
  3324                           
  3325                           ;C:\Program Files\Microchip\xc8\v3.00\pic\sources\c99\common\doprnt.c: 660:   while ((la
      +                          bs((g).u-((ou.f = u.f*10.0,ou)).u) <= 1) || g.f > ou.f) {
  3326   000A68  C088  F028         	movff	efgtoa@u,___flmul@b
  3327   000A6C  C089  F029         	movff	efgtoa@u+1,___flmul@b+1
  3328   000A70  C08A  F02A         	movff	efgtoa@u+2,___flmul@b+2
  3329   000A74  C08B  F02B         	movff	efgtoa@u+3,___flmul@b+3
  3330   000A78  0E00               	movlw	0
  3331   000A7A  6E2C               	movwf	___flmul@a^0,c
  3332   000A7C  0E00               	movlw	0
  3333   000A7E  6E2D               	movwf	(___flmul@a+1)^0,c
  3334   000A80  0E20               	movlw	32
  3335   000A82  6E2E               	movwf	(___flmul@a+2)^0,c
  3336   000A84  0E41               	movlw	65
  3337   000A86  6E2F               	movwf	(___flmul@a+3)^0,c
  3338   000A88  ECB2  F00E         	call	___flmul	;wreg free
  3339   000A8C  C028  F071         	movff	?___flmul,efgtoa@ou
  3340   000A90  C029  F072         	movff	?___flmul+1,efgtoa@ou+1
  3341   000A94  C02A  F073         	movff	?___flmul+2,efgtoa@ou+2
  3342   000A98  C02B  F074         	movff	?___flmul+3,efgtoa@ou+3
  3343   000A9C  0100               	movlb	0	; () banked
  3344   000A9E  5171               	movf	efgtoa@ou& (0+255),w,b
  3345   000AA0  5D82               	subwf	efgtoa@g& (0+255),w,b
  3346   000AA2  6E01               	movwf	labs@a^0,c
  3347   000AA4  5172               	movf	(efgtoa@ou+1)& (0+255),w,b
  3348   000AA6  5983               	subwfb	(efgtoa@g+1)& (0+255),w,b
  3349   000AA8  6E02               	movwf	(labs@a+1)^0,c
  3350   000AAA  5173               	movf	(efgtoa@ou+2)& (0+255),w,b
  3351   000AAC  5984               	subwfb	(efgtoa@g+2)& (0+255),w,b
  3352   000AAE  6E03               	movwf	(labs@a+2)^0,c
  3353   000AB0  5174               	movf	(efgtoa@ou+3)& (0+255),w,b
  3354   000AB2  5985               	subwfb	(efgtoa@g+3)& (0+255),w,b
  3355   000AB4  6E04               	movwf	(labs@a+3)^0,c
  3356   000AB6  ECD9  F01A         	call	_labs	;wreg free
  3357   000ABA  BE04               	btfsc	(?_labs+3)^0,7,c
  3358   000ABC  EF6B  F005         	goto	u6761
  3359   000AC0  5004               	movf	(?_labs+3)^0,w,c
  3360   000AC2  1003               	iorwf	(?_labs+2)^0,w,c
  3361   000AC4  1002               	iorwf	(?_labs+1)^0,w,c
  3362   000AC6  E109               	bnz	u6760
  3363   000AC8  0E02               	movlw	2
  3364   000ACA  5C01               	subwf	?_labs^0,w,c
  3365   000ACC  A0D8               	btfss	status,0,c
  3366   000ACE  EF6B  F005         	goto	u6761
  3367   000AD2  EF6D  F005         	goto	u6760
  3368   000AD6                     u6761:
  3369   000AD6  EF29  F005         	goto	l872
  3370   000ADA                     u6760:
  3371   000ADA  C071  F041         	movff	efgtoa@ou,___flge@ff1
  3372   000ADE  C072  F042         	movff	efgtoa@ou+1,___flge@ff1+1
  3373   000AE2  C073  F043         	movff	efgtoa@ou+2,___flge@ff1+2
  3374   000AE6  C074  F044         	movff	efgtoa@ou+3,___flge@ff1+3
  3375   000AEA  C082  F045         	movff	efgtoa@g,___flge@ff2
  3376   000AEE  C083  F046         	movff	efgtoa@g+1,___flge@ff2+1
  3377   000AF2  C084  F047         	movff	efgtoa@g+2,___flge@ff2+2
  3378   000AF6  C085  F048         	movff	efgtoa@g+3,___flge@ff2+3
  3379   000AFA  EC2C  F017         	call	___flge	;wreg free
  3380   000AFE  A0D8               	btfss	status,0,c
  3381   000B00  EF84  F005         	goto	u6771
  3382   000B04  EF86  F005         	goto	u6770
  3383   000B08                     u6771:
  3384   000B08  EF29  F005         	goto	l872
  3385   000B0C                     u6770:
  3386   000B0C                     
  3387                           ;C:\Program Files\Microchip\xc8\v3.00\pic\sources\c99\common\doprnt.c: 664:   if ((labs(
      +                          (g).u-(u).u) <= 1)) {
  3388   000B0C  0100               	movlb	0	; () banked
  3389   000B0E  5188               	movf	efgtoa@u& (0+255),w,b
  3390   000B10  5D82               	subwf	efgtoa@g& (0+255),w,b
  3391   000B12  6E01               	movwf	labs@a^0,c
  3392   000B14  5189               	movf	(efgtoa@u+1)& (0+255),w,b
  3393   000B16  5983               	subwfb	(efgtoa@g+1)& (0+255),w,b
  3394   000B18  6E02               	movwf	(labs@a+1)^0,c
  3395   000B1A  518A               	movf	(efgtoa@u+2)& (0+255),w,b
  3396   000B1C  5984               	subwfb	(efgtoa@g+2)& (0+255),w,b
  3397   000B1E  6E03               	movwf	(labs@a+2)^0,c
  3398   000B20  518B               	movf	(efgtoa@u+3)& (0+255),w,b
  3399   000B22  5985               	subwfb	(efgtoa@g+3)& (0+255),w,b
  3400   000B24  6E04               	movwf	(labs@a+3)^0,c
  3401   000B26  ECD9  F01A         	call	_labs	;wreg free
  3402   000B2A  BE04               	btfsc	(?_labs+3)^0,7,c
  3403   000B2C  EFA5  F005         	goto	u6780
  3404   000B30  5004               	movf	(?_labs+3)^0,w,c
  3405   000B32  1003               	iorwf	(?_labs+2)^0,w,c
  3406   000B34  1002               	iorwf	(?_labs+1)^0,w,c
  3407   000B36  E107               	bnz	u6781
  3408   000B38  0E02               	movlw	2
  3409   000B3A  5C01               	subwf	?_labs^0,w,c
  3410   000B3C  B0D8               	btfsc	status,0,c
  3411   000B3E  EFA3  F005         	goto	u6781
  3412   000B42  EFA5  F005         	goto	u6780
  3413   000B46                     u6781:
  3414   000B46  EFED  F005         	goto	l4771
  3415   000B4A                     u6780:
  3416   000B4A                     l4761:
  3417                           
  3418                           ;C:\Program Files\Microchip\xc8\v3.00\pic\sources\c99\common\doprnt.c: 665:    g = u;
  3419   000B4A  C088  F082         	movff	efgtoa@u,efgtoa@g
  3420   000B4E  C089  F083         	movff	efgtoa@u+1,efgtoa@g+1
  3421   000B52  C08A  F084         	movff	efgtoa@u+2,efgtoa@g+2
  3422   000B56  C08B  F085         	movff	efgtoa@u+3,efgtoa@g+3
  3423                           
  3424                           ;C:\Program Files\Microchip\xc8\v3.00\pic\sources\c99\common\doprnt.c: 666:   }
  3425   000B5A  EF06  F006         	goto	l870
  3426   000B5E                     l4763:
  3427                           
  3428                           ;C:\Program Files\Microchip\xc8\v3.00\pic\sources\c99\common\doprnt.c: 669:     u.f = u.
      +                          f/10.0;
  3429   000B5E  C088  F00F         	movff	efgtoa@u,___fldiv@b
  3430   000B62  C089  F010         	movff	efgtoa@u+1,___fldiv@b+1
  3431   000B66  C08A  F011         	movff	efgtoa@u+2,___fldiv@b+2
  3432   000B6A  C08B  F012         	movff	efgtoa@u+3,___fldiv@b+3
  3433   000B6E  0E00               	movlw	0
  3434   000B70  6E13               	movwf	___fldiv@a^0,c
  3435   000B72  0E00               	movlw	0
  3436   000B74  6E14               	movwf	(___fldiv@a+1)^0,c
  3437   000B76  0E20               	movlw	32
  3438   000B78  6E15               	movwf	(___fldiv@a+2)^0,c
  3439   000B7A  0E41               	movlw	65
  3440   000B7C  6E16               	movwf	(___fldiv@a+3)^0,c
  3441   000B7E  ECC5  F010         	call	___fldiv	;wreg free
  3442   000B82  C00F  F088         	movff	?___fldiv,efgtoa@u
  3443   000B86  C010  F089         	movff	?___fldiv+1,efgtoa@u+1
  3444   000B8A  C011  F08A         	movff	?___fldiv+2,efgtoa@u+2
  3445   000B8E  C012  F08B         	movff	?___fldiv+3,efgtoa@u+3
  3446   000B92                     
  3447                           ;C:\Program Files\Microchip\xc8\v3.00\pic\sources\c99\common\doprnt.c: 670:     --e;
  3448   000B92  0100               	movlb	0	; () banked
  3449   000B94  076F               	decf	efgtoa@e& (0+255),f,b
  3450   000B96  A0D8               	btfss	status,0,c
  3451   000B98  0770               	decf	(efgtoa@e+1)& (0+255),f,b
  3452   000B9A                     
  3453                           ; BSR set to: 0
  3454                           ;C:\Program Files\Microchip\xc8\v3.00\pic\sources\c99\common\doprnt.c: 671:     if ((lab
      +                          s((g).u-(u).u) <= 1)) {
  3455   000B9A  5188               	movf	efgtoa@u& (0+255),w,b
  3456   000B9C  5D82               	subwf	efgtoa@g& (0+255),w,b
  3457   000B9E  6E01               	movwf	labs@a^0,c
  3458   000BA0  5189               	movf	(efgtoa@u+1)& (0+255),w,b
  3459   000BA2  5983               	subwfb	(efgtoa@g+1)& (0+255),w,b
  3460   000BA4  6E02               	movwf	(labs@a+1)^0,c
  3461   000BA6  518A               	movf	(efgtoa@u+2)& (0+255),w,b
  3462   000BA8  5984               	subwfb	(efgtoa@g+2)& (0+255),w,b
  3463   000BAA  6E03               	movwf	(labs@a+2)^0,c
  3464   000BAC  518B               	movf	(efgtoa@u+3)& (0+255),w,b
  3465   000BAE  5985               	subwfb	(efgtoa@g+3)& (0+255),w,b
  3466   000BB0  6E04               	movwf	(labs@a+3)^0,c
  3467   000BB2  ECD9  F01A         	call	_labs	;wreg free
  3468   000BB6  BE04               	btfsc	(?_labs+3)^0,7,c
  3469   000BB8  EFEB  F005         	goto	u6790
  3470   000BBC  5004               	movf	(?_labs+3)^0,w,c
  3471   000BBE  1003               	iorwf	(?_labs+2)^0,w,c
  3472   000BC0  1002               	iorwf	(?_labs+1)^0,w,c
  3473   000BC2  E107               	bnz	u6791
  3474   000BC4  0E02               	movlw	2
  3475   000BC6  5C01               	subwf	?_labs^0,w,c
  3476   000BC8  B0D8               	btfsc	status,0,c
  3477   000BCA  EFE9  F005         	goto	u6791
  3478   000BCE  EFEB  F005         	goto	u6790
  3479   000BD2                     u6791:
  3480   000BD2  EFED  F005         	goto	l4771
  3481   000BD6                     u6790:
  3482   000BD6  EFA5  F005         	goto	l4761
  3483   000BDA                     l4771:
  3484                           
  3485                           ;C:\Program Files\Microchip\xc8\v3.00\pic\sources\c99\common\doprnt.c: 668:    while (g.
      +                          f < u.f) {
  3486   000BDA  C082  F041         	movff	efgtoa@g,___flge@ff1
  3487   000BDE  C083  F042         	movff	efgtoa@g+1,___flge@ff1+1
  3488   000BE2  C084  F043         	movff	efgtoa@g+2,___flge@ff1+2
  3489   000BE6  C085  F044         	movff	efgtoa@g+3,___flge@ff1+3
  3490   000BEA  C088  F045         	movff	efgtoa@u,___flge@ff2
  3491   000BEE  C089  F046         	movff	efgtoa@u+1,___flge@ff2+1
  3492   000BF2  C08A  F047         	movff	efgtoa@u+2,___flge@ff2+2
  3493   000BF6  C08B  F048         	movff	efgtoa@u+3,___flge@ff2+3
  3494   000BFA  EC2C  F017         	call	___flge	;wreg free
  3495   000BFE  A0D8               	btfss	status,0,c
  3496   000C00  EF04  F006         	goto	u6801
  3497   000C04  EF06  F006         	goto	u6800
  3498   000C08                     u6801:
  3499   000C08  EFAF  F005         	goto	l4763
  3500   000C0C                     u6800:
  3501   000C0C                     l870:
  3502                           
  3503                           ;C:\Program Files\Microchip\xc8\v3.00\pic\sources\c99\common\doprnt.c: 683:  mode = c;
  3504   000C0C  C052  F069         	movff	efgtoa@c,efgtoa@mode
  3505                           
  3506                           ;C:\Program Files\Microchip\xc8\v3.00\pic\sources\c99\common\doprnt.c: 685:     nmode = 
      +                          mode;
  3507   000C10  C069  F06A         	movff	efgtoa@mode,efgtoa@nmode
  3508   000C14                     
  3509                           ;C:\Program Files\Microchip\xc8\v3.00\pic\sources\c99\common\doprnt.c: 695:  {;C:\Progra
      +                          m Files\Microchip\xc8\v3.00\pic\sources\c99\common\doprnt.c: 696:         p = (prec < 0)
      +                           ? 6 : prec;
  3510   000C14  0100               	movlb	0	; () banked
  3511   000C16  BFCC               	btfsc	(_prec+1)& (0+255),7,b
  3512   000C18  EF10  F006         	goto	u6811
  3513   000C1C  EF12  F006         	goto	u6810
  3514   000C20                     u6811:
  3515   000C20  EF18  F006         	goto	l4777
  3516   000C24                     u6810:
  3517   000C24                     
  3518                           ; BSR set to: 0
  3519   000C24  C0CB  F062         	movff	_prec,efgtoa@p
  3520   000C28  C0CC  F063         	movff	_prec+1,efgtoa@p+1
  3521   000C2C  EF1C  F006         	goto	l4779
  3522   000C30                     l4777:
  3523                           
  3524                           ; BSR set to: 0
  3525   000C30  0E00               	movlw	0
  3526   000C32  6F63               	movwf	(efgtoa@p+1)& (0+255),b
  3527   000C34  0E06               	movlw	6
  3528   000C36  6F62               	movwf	efgtoa@p& (0+255),b
  3529   000C38                     l4779:
  3530                           
  3531                           ; BSR set to: 0
  3532                           ;C:\Program Files\Microchip\xc8\v3.00\pic\sources\c99\common\doprnt.c: 697:     };C:\Pro
      +                          gram Files\Microchip\xc8\v3.00\pic\sources\c99\common\doprnt.c: 711:     m = p;
  3533   000C38  C062  F06D         	movff	efgtoa@p,efgtoa@m
  3534   000C3C  C063  F06E         	movff	efgtoa@p+1,efgtoa@m+1
  3535   000C40                     
  3536                           ; BSR set to: 0
  3537                           ;C:\Program Files\Microchip\xc8\v3.00\pic\sources\c99\common\doprnt.c: 715:  {;C:\Progra
      +                          m Files\Microchip\xc8\v3.00\pic\sources\c99\common\doprnt.c: 716:         ++m;
  3538   000C40  4B6D               	infsnz	efgtoa@m& (0+255),f,b
  3539   000C42  2B6E               	incf	(efgtoa@m+1)& (0+255),f,b
  3540   000C44                     
  3541                           ; BSR set to: 0
  3542                           ;C:\Program Files\Microchip\xc8\v3.00\pic\sources\c99\common\doprnt.c: 717:     };C:\Pro
      +                          gram Files\Microchip\xc8\v3.00\pic\sources\c99\common\doprnt.c: 721:     if (nmode == 'f
      +                          ') {
  3543   000C44  0E66               	movlw	102
  3544   000C46  196A               	xorwf	efgtoa@nmode& (0+255),w,b
  3545   000C48  A4D8               	btfss	status,2,c
  3546   000C4A  EF29  F006         	goto	u6821
  3547   000C4E  EF2B  F006         	goto	u6820
  3548   000C52                     u6821:
  3549   000C52  EF4B  F006         	goto	l4793
  3550   000C56                     u6820:
  3551   000C56                     
  3552                           ; BSR set to: 0
  3553                           ;C:\Program Files\Microchip\xc8\v3.00\pic\sources\c99\common\doprnt.c: 722:         if (
      +                          e < 0) {
  3554   000C56  BF70               	btfsc	(efgtoa@e+1)& (0+255),7,b
  3555   000C58  EF32  F006         	goto	u6830
  3556   000C5C  EF30  F006         	goto	u6831
  3557   000C60                     u6831:
  3558   000C60  EF3E  F006         	goto	l4789
  3559   000C64                     u6830:
  3560   000C64                     
  3561                           ; BSR set to: 0
  3562                           ;C:\Program Files\Microchip\xc8\v3.00\pic\sources\c99\common\doprnt.c: 723:             
      +                          u.f = 1.0;
  3563   000C64  0E00               	movlw	0
  3564   000C66  6F88               	movwf	efgtoa@u& (0+255),b
  3565   000C68  0E00               	movlw	0
  3566   000C6A  6F89               	movwf	(efgtoa@u+1)& (0+255),b
  3567   000C6C  0E80               	movlw	128
  3568   000C6E  6F8A               	movwf	(efgtoa@u+2)& (0+255),b
  3569   000C70  0E3F               	movlw	63
  3570   000C72  6F8B               	movwf	(efgtoa@u+3)& (0+255),b
  3571                           
  3572                           ;C:\Program Files\Microchip\xc8\v3.00\pic\sources\c99\common\doprnt.c: 724:             
      +                          e = 0;
  3573   000C74  0E00               	movlw	0
  3574   000C76  6F70               	movwf	(efgtoa@e+1)& (0+255),b
  3575   000C78  0E00               	movlw	0
  3576   000C7A  6F6F               	movwf	efgtoa@e& (0+255),b
  3577   000C7C                     l4789:
  3578                           
  3579                           ; BSR set to: 0
  3580                           ;C:\Program Files\Microchip\xc8\v3.00\pic\sources\c99\common\doprnt.c: 726:         if (
      +                          !(mode == 'g')) {
  3581   000C7C  0E67               	movlw	103
  3582   000C7E  1969               	xorwf	efgtoa@mode& (0+255),w,b
  3583   000C80  B4D8               	btfsc	status,2,c
  3584   000C82  EF45  F006         	goto	u6841
  3585   000C86  EF47  F006         	goto	u6840
  3586   000C8A                     u6841:
  3587   000C8A  EF4B  F006         	goto	l4793
  3588   000C8E                     u6840:
  3589   000C8E                     
  3590                           ; BSR set to: 0
  3591                           ;C:\Program Files\Microchip\xc8\v3.00\pic\sources\c99\common\doprnt.c: 727:             
      +                          m += e;
  3592   000C8E  516F               	movf	efgtoa@e& (0+255),w,b
  3593   000C90  276D               	addwf	efgtoa@m& (0+255),f,b
  3594   000C92  5170               	movf	(efgtoa@e+1)& (0+255),w,b
  3595   000C94  236E               	addwfc	(efgtoa@m+1)& (0+255),f,b
  3596   000C96                     l4793:
  3597                           
  3598                           ; BSR set to: 0
  3599                           ;C:\Program Files\Microchip\xc8\v3.00\pic\sources\c99\common\doprnt.c: 733:     i = 0;
  3600   000C96  0E00               	movlw	0
  3601   000C98  6F80               	movwf	(efgtoa@i+1)& (0+255),b
  3602   000C9A  0E00               	movlw	0
  3603   000C9C  6F7F               	movwf	efgtoa@i& (0+255),b
  3604   000C9E                     
  3605                           ; BSR set to: 0
  3606                           ;C:\Program Files\Microchip\xc8\v3.00\pic\sources\c99\common\doprnt.c: 734:     h = g.f;
  3607   000C9E  C082  F077         	movff	efgtoa@g,efgtoa@h
  3608   000CA2  C083  F078         	movff	efgtoa@g+1,efgtoa@h+1
  3609   000CA6  C084  F079         	movff	efgtoa@g+2,efgtoa@h+2
  3610   000CAA  C085  F07A         	movff	efgtoa@g+3,efgtoa@h+3
  3611   000CAE                     
  3612                           ; BSR set to: 0
  3613                           ;C:\Program Files\Microchip\xc8\v3.00\pic\sources\c99\common\doprnt.c: 735:     ou = u;
  3614   000CAE  C088  F071         	movff	efgtoa@u,efgtoa@ou
  3615   000CB2  C089  F072         	movff	efgtoa@u+1,efgtoa@ou+1
  3616   000CB6  C08A  F073         	movff	efgtoa@u+2,efgtoa@ou+2
  3617   000CBA  C08B  F074         	movff	efgtoa@u+3,efgtoa@ou+3
  3618                           
  3619                           ;C:\Program Files\Microchip\xc8\v3.00\pic\sources\c99\common\doprnt.c: 736:     while (i
      +                           < m) {
  3620   000CBE  EFDC  F006         	goto	l4807
  3621   000CC2                     l4799:
  3622                           
  3623                           ; BSR set to: 0
  3624                           ;C:\Program Files\Microchip\xc8\v3.00\pic\sources\c99\common\doprnt.c: 737:         l = 
      +                          floorf(h/u.f);
  3625   000CC2  C077  F00F         	movff	efgtoa@h,___fldiv@b
  3626   000CC6  C078  F010         	movff	efgtoa@h+1,___fldiv@b+1
  3627   000CCA  C079  F011         	movff	efgtoa@h+2,___fldiv@b+2
  3628   000CCE  C07A  F012         	movff	efgtoa@h+3,___fldiv@b+3
  3629   000CD2  C088  F013         	movff	efgtoa@u,___fldiv@a
  3630   000CD6  C089  F014         	movff	efgtoa@u+1,___fldiv@a+1
  3631   000CDA  C08A  F015         	movff	efgtoa@u+2,___fldiv@a+2
  3632   000CDE  C08B  F016         	movff	efgtoa@u+3,___fldiv@a+3
  3633   000CE2  ECC5  F010         	call	___fldiv	;wreg free
  3634   000CE6  C00F  F028         	movff	?___fldiv,floorf@x
  3635   000CEA  C010  F029         	movff	?___fldiv+1,floorf@x+1
  3636   000CEE  C011  F02A         	movff	?___fldiv+2,floorf@x+2
  3637   000CF2  C012  F02B         	movff	?___fldiv+3,floorf@x+3
  3638   000CF6  ECED  F013         	call	_floorf	;wreg free
  3639   000CFA  C028  F07B         	movff	?_floorf,efgtoa@l
  3640   000CFE  C029  F07C         	movff	?_floorf+1,efgtoa@l+1
  3641   000D02  C02A  F07D         	movff	?_floorf+2,efgtoa@l+2
  3642   000D06  C02B  F07E         	movff	?_floorf+3,efgtoa@l+3
  3643                           
  3644                           ;C:\Program Files\Microchip\xc8\v3.00\pic\sources\c99\common\doprnt.c: 738:         d = 
      +                          (int)l;
  3645   000D0A  C07B  F001         	movff	efgtoa@l,___fltol@f1
  3646   000D0E  C07C  F002         	movff	efgtoa@l+1,___fltol@f1+1
  3647   000D12  C07D  F003         	movff	efgtoa@l+2,___fltol@f1+2
  3648   000D16  C07E  F004         	movff	efgtoa@l+3,___fltol@f1+3
  3649   000D1A  ECA9  F016         	call	___fltol	;wreg free
  3650   000D1E  C001  F06B         	movff	?___fltol,efgtoa@d
  3651   000D22  C002  F06C         	movff	?___fltol+1,efgtoa@d+1
  3652   000D26                     
  3653                           ;C:\Program Files\Microchip\xc8\v3.00\pic\sources\c99\common\doprnt.c: 739:         h -=
      +                           l*u.f;
  3654   000D26  C077  F041         	movff	efgtoa@h,___flsub@b
  3655   000D2A  C078  F042         	movff	efgtoa@h+1,___flsub@b+1
  3656   000D2E  C079  F043         	movff	efgtoa@h+2,___flsub@b+2
  3657   000D32  C07A  F044         	movff	efgtoa@h+3,___flsub@b+3
  3658   000D36  C07B  F02C         	movff	efgtoa@l,___flmul@a
  3659   000D3A  C07C  F02D         	movff	efgtoa@l+1,___flmul@a+1
  3660   000D3E  C07D  F02E         	movff	efgtoa@l+2,___flmul@a+2
  3661   000D42  C07E  F02F         	movff	efgtoa@l+3,___flmul@a+3
  3662   000D46  C088  F028         	movff	efgtoa@u,___flmul@b
  3663   000D4A  C089  F029         	movff	efgtoa@u+1,___flmul@b+1
  3664   000D4E  C08A  F02A         	movff	efgtoa@u+2,___flmul@b+2
  3665   000D52  C08B  F02B         	movff	efgtoa@u+3,___flmul@b+3
  3666   000D56  ECB2  F00E         	call	___flmul	;wreg free
  3667   000D5A  C028  F045         	movff	?___flmul,___flsub@a
  3668   000D5E  C029  F046         	movff	?___flmul+1,___flsub@a+1
  3669   000D62  C02A  F047         	movff	?___flmul+2,___flsub@a+2
  3670   000D66  C02B  F048         	movff	?___flmul+3,___flsub@a+3
  3671   000D6A  EC78  F01B         	call	___flsub	;wreg free
  3672   000D6E  C041  F077         	movff	?___flsub,efgtoa@h
  3673   000D72  C042  F078         	movff	?___flsub+1,efgtoa@h+1
  3674   000D76  C043  F079         	movff	?___flsub+2,efgtoa@h+2
  3675   000D7A  C044  F07A         	movff	?___flsub+3,efgtoa@h+3
  3676   000D7E                     
  3677                           ;C:\Program Files\Microchip\xc8\v3.00\pic\sources\c99\common\doprnt.c: 740:         u.f 
      +                          = u.f/10.0;
  3678   000D7E  C088  F00F         	movff	efgtoa@u,___fldiv@b
  3679   000D82  C089  F010         	movff	efgtoa@u+1,___fldiv@b+1
  3680   000D86  C08A  F011         	movff	efgtoa@u+2,___fldiv@b+2
  3681   000D8A  C08B  F012         	movff	efgtoa@u+3,___fldiv@b+3
  3682   000D8E  0E00               	movlw	0
  3683   000D90  6E13               	movwf	___fldiv@a^0,c
  3684   000D92  0E00               	movlw	0
  3685   000D94  6E14               	movwf	(___fldiv@a+1)^0,c
  3686   000D96  0E20               	movlw	32
  3687   000D98  6E15               	movwf	(___fldiv@a+2)^0,c
  3688   000D9A  0E41               	movlw	65
  3689   000D9C  6E16               	movwf	(___fldiv@a+3)^0,c
  3690   000D9E  ECC5  F010         	call	___fldiv	;wreg free
  3691   000DA2  C00F  F088         	movff	?___fldiv,efgtoa@u
  3692   000DA6  C010  F089         	movff	?___fldiv+1,efgtoa@u+1
  3693   000DAA  C011  F08A         	movff	?___fldiv+2,efgtoa@u+2
  3694   000DAE  C012  F08B         	movff	?___fldiv+3,efgtoa@u+3
  3695   000DB2                     
  3696                           ;C:\Program Files\Microchip\xc8\v3.00\pic\sources\c99\common\doprnt.c: 741:         ++i;
  3697   000DB2  0100               	movlb	0	; () banked
  3698   000DB4  4B7F               	infsnz	efgtoa@i& (0+255),f,b
  3699   000DB6  2B80               	incf	(efgtoa@i+1)& (0+255),f,b
  3700   000DB8                     l4807:
  3701                           
  3702                           ; BSR set to: 0
  3703                           ;C:\Program Files\Microchip\xc8\v3.00\pic\sources\c99\common\doprnt.c: 736:     while (i
      +                           < m) {
  3704   000DB8  516D               	movf	efgtoa@m& (0+255),w,b
  3705   000DBA  5D7F               	subwf	efgtoa@i& (0+255),w,b
  3706   000DBC  5180               	movf	(efgtoa@i+1)& (0+255),w,b
  3707   000DBE  0A80               	xorlw	128
  3708   000DC0  6E53               	movwf	??_efgtoa^0,c
  3709   000DC2  516E               	movf	(efgtoa@m+1)& (0+255),w,b
  3710   000DC4  0A80               	xorlw	128
  3711   000DC6  5853               	subwfb	??_efgtoa^0,w,c
  3712   000DC8  A0D8               	btfss	status,0,c
  3713   000DCA  EFE9  F006         	goto	u6851
  3714   000DCE  EFEB  F006         	goto	u6850
  3715   000DD2                     u6851:
  3716   000DD2  EF61  F006         	goto	l4799
  3717   000DD6                     u6850:
  3718   000DD6                     
  3719                           ; BSR set to: 0
  3720                           ;C:\Program Files\Microchip\xc8\v3.00\pic\sources\c99\common\doprnt.c: 745:     l = u.f*
      +                          5.0;
  3721   000DD6  C088  F028         	movff	efgtoa@u,___flmul@b
  3722   000DDA  C089  F029         	movff	efgtoa@u+1,___flmul@b+1
  3723   000DDE  C08A  F02A         	movff	efgtoa@u+2,___flmul@b+2
  3724   000DE2  C08B  F02B         	movff	efgtoa@u+3,___flmul@b+3
  3725   000DE6  0E00               	movlw	0
  3726   000DE8  6E2C               	movwf	___flmul@a^0,c
  3727   000DEA  0E00               	movlw	0
  3728   000DEC  6E2D               	movwf	(___flmul@a+1)^0,c
  3729   000DEE  0EA0               	movlw	160
  3730   000DF0  6E2E               	movwf	(___flmul@a+2)^0,c
  3731   000DF2  0E40               	movlw	64
  3732   000DF4  6E2F               	movwf	(___flmul@a+3)^0,c
  3733   000DF6  ECB2  F00E         	call	___flmul	;wreg free
  3734   000DFA  C028  F07B         	movff	?___flmul,efgtoa@l
  3735   000DFE  C029  F07C         	movff	?___flmul+1,efgtoa@l+1
  3736   000E02  C02A  F07D         	movff	?___flmul+2,efgtoa@l+2
  3737   000E06  C02B  F07E         	movff	?___flmul+3,efgtoa@l+3
  3738   000E0A                     
  3739                           ;C:\Program Files\Microchip\xc8\v3.00\pic\sources\c99\common\doprnt.c: 746:     if (h < 
      +                          l) {
  3740   000E0A  C077  F041         	movff	efgtoa@h,___flge@ff1
  3741   000E0E  C078  F042         	movff	efgtoa@h+1,___flge@ff1+1
  3742   000E12  C079  F043         	movff	efgtoa@h+2,___flge@ff1+2
  3743   000E16  C07A  F044         	movff	efgtoa@h+3,___flge@ff1+3
  3744   000E1A  C07B  F045         	movff	efgtoa@l,___flge@ff2
  3745   000E1E  C07C  F046         	movff	efgtoa@l+1,___flge@ff2+1
  3746   000E22  C07D  F047         	movff	efgtoa@l+2,___flge@ff2+2
  3747   000E26  C07E  F048         	movff	efgtoa@l+3,___flge@ff2+3
  3748   000E2A  EC2C  F017         	call	___flge	;wreg free
  3749   000E2E  B0D8               	btfsc	status,0,c
  3750   000E30  EF1C  F007         	goto	u6861
  3751   000E34  EF1E  F007         	goto	u6860
  3752   000E38                     u6861:
  3753   000E38  EF29  F007         	goto	l4815
  3754   000E3C                     u6860:
  3755   000E3C                     
  3756                           ;C:\Program Files\Microchip\xc8\v3.00\pic\sources\c99\common\doprnt.c: 747:         l = 
      +                          0.0;
  3757   000E3C  0E00               	movlw	0
  3758   000E3E  0100               	movlb	0	; () banked
  3759   000E40  6F7B               	movwf	efgtoa@l& (0+255),b
  3760   000E42  0E00               	movlw	0
  3761   000E44  6F7C               	movwf	(efgtoa@l+1)& (0+255),b
  3762   000E46  0E00               	movlw	0
  3763   000E48  6F7D               	movwf	(efgtoa@l+2)& (0+255),b
  3764   000E4A  0E00               	movlw	0
  3765   000E4C  6F7E               	movwf	(efgtoa@l+3)& (0+255),b
  3766                           
  3767                           ;C:\Program Files\Microchip\xc8\v3.00\pic\sources\c99\common\doprnt.c: 748:     } else {
  3768   000E4E  EF52  F007         	goto	l4821
  3769   000E52                     l4815:
  3770                           
  3771                           ;C:\Program Files\Microchip\xc8\v3.00\pic\sources\c99\common\doprnt.c: 750:         if (
      +                          (h == l) && !(d % 2)) {
  3772   000E52  C077  F001         	movff	efgtoa@h,___fleq@ff1
  3773   000E56  C078  F002         	movff	efgtoa@h+1,___fleq@ff1+1
  3774   000E5A  C079  F003         	movff	efgtoa@h+2,___fleq@ff1+2
  3775   000E5E  C07A  F004         	movff	efgtoa@h+3,___fleq@ff1+3
  3776   000E62  C07B  F005         	movff	efgtoa@l,___fleq@ff2
  3777   000E66  C07C  F006         	movff	efgtoa@l+1,___fleq@ff2+1
  3778   000E6A  C07D  F007         	movff	efgtoa@l+2,___fleq@ff2+2
  3779   000E6E  C07E  F008         	movff	efgtoa@l+3,___fleq@ff2+3
  3780   000E72  ECE5  F018         	call	___fleq	;wreg free
  3781   000E76  A0D8               	btfss	status,0,c
  3782   000E78  EF40  F007         	goto	u6871
  3783   000E7C  EF42  F007         	goto	u6870
  3784   000E80                     u6871:
  3785   000E80  EF52  F007         	goto	l4821
  3786   000E84                     u6870:
  3787   000E84  0100               	movlb	0	; () banked
  3788   000E86  B16B               	btfsc	efgtoa@d& (0+255),0,b
  3789   000E88  EF48  F007         	goto	u6881
  3790   000E8C  EF4A  F007         	goto	u6880
  3791   000E90                     u6881:
  3792   000E90  EF52  F007         	goto	l4821
  3793   000E94                     u6880:
  3794   000E94                     
  3795                           ; BSR set to: 0
  3796                           ;C:\Program Files\Microchip\xc8\v3.00\pic\sources\c99\common\doprnt.c: 751:             
      +                          l = 0.0;
  3797   000E94  0E00               	movlw	0
  3798   000E96  6F7B               	movwf	efgtoa@l& (0+255),b
  3799   000E98  0E00               	movlw	0
  3800   000E9A  6F7C               	movwf	(efgtoa@l+1)& (0+255),b
  3801   000E9C  0E00               	movlw	0
  3802   000E9E  6F7D               	movwf	(efgtoa@l+2)& (0+255),b
  3803   000EA0  0E00               	movlw	0
  3804   000EA2  6F7E               	movwf	(efgtoa@l+3)& (0+255),b
  3805   000EA4                     l4821:
  3806                           
  3807                           ;C:\Program Files\Microchip\xc8\v3.00\pic\sources\c99\common\doprnt.c: 756:     h = g.f 
      +                          + l;
  3808   000EA4  C082  F001         	movff	efgtoa@g,___fladd@b
  3809   000EA8  C083  F002         	movff	efgtoa@g+1,___fladd@b+1
  3810   000EAC  C084  F003         	movff	efgtoa@g+2,___fladd@b+2
  3811   000EB0  C085  F004         	movff	efgtoa@g+3,___fladd@b+3
  3812   000EB4  C07B  F005         	movff	efgtoa@l,___fladd@a
  3813   000EB8  C07C  F006         	movff	efgtoa@l+1,___fladd@a+1
  3814   000EBC  C07D  F007         	movff	efgtoa@l+2,___fladd@a+2
  3815   000EC0  C07E  F008         	movff	efgtoa@l+3,___fladd@a+3
  3816   000EC4  EC57  F00C         	call	___fladd	;wreg free
  3817   000EC8  C001  F077         	movff	?___fladd,efgtoa@h
  3818   000ECC  C002  F078         	movff	?___fladd+1,efgtoa@h+1
  3819   000ED0  C003  F079         	movff	?___fladd+2,efgtoa@h+2
  3820   000ED4  C004  F07A         	movff	?___fladd+3,efgtoa@h+3
  3821   000ED8                     
  3822                           ;C:\Program Files\Microchip\xc8\v3.00\pic\sources\c99\common\doprnt.c: 758:  if (h >= (o
      +                          u.f*10.0)) {
  3823   000ED8  C077  F041         	movff	efgtoa@h,___flge@ff1
  3824   000EDC  C078  F042         	movff	efgtoa@h+1,___flge@ff1+1
  3825   000EE0  C079  F043         	movff	efgtoa@h+2,___flge@ff1+2
  3826   000EE4  C07A  F044         	movff	efgtoa@h+3,___flge@ff1+3
  3827   000EE8  0E00               	movlw	0
  3828   000EEA  6E2C               	movwf	___flmul@a^0,c
  3829   000EEC  0E00               	movlw	0
  3830   000EEE  6E2D               	movwf	(___flmul@a+1)^0,c
  3831   000EF0  0E20               	movlw	32
  3832   000EF2  6E2E               	movwf	(___flmul@a+2)^0,c
  3833   000EF4  0E41               	movlw	65
  3834   000EF6  6E2F               	movwf	(___flmul@a+3)^0,c
  3835   000EF8  C071  F028         	movff	efgtoa@ou,___flmul@b
  3836   000EFC  C072  F029         	movff	efgtoa@ou+1,___flmul@b+1
  3837   000F00  C073  F02A         	movff	efgtoa@ou+2,___flmul@b+2
  3838   000F04  C074  F02B         	movff	efgtoa@ou+3,___flmul@b+3
  3839   000F08  ECB2  F00E         	call	___flmul	;wreg free
  3840   000F0C  C028  F045         	movff	?___flmul,___flge@ff2
  3841   000F10  C029  F046         	movff	?___flmul+1,___flge@ff2+1
  3842   000F14  C02A  F047         	movff	?___flmul+2,___flge@ff2+2
  3843   000F18  C02B  F048         	movff	?___flmul+3,___flge@ff2+3
  3844   000F1C  EC2C  F017         	call	___flge	;wreg free
  3845   000F20  A0D8               	btfss	status,0,c
  3846   000F22  EF95  F007         	goto	u6891
  3847   000F26  EF97  F007         	goto	u6890
  3848   000F2A                     u6891:
  3849   000F2A  EFC0  F007         	goto	l4833
  3850   000F2E                     u6890:
  3851   000F2E                     
  3852                           ;C:\Program Files\Microchip\xc8\v3.00\pic\sources\c99\common\doprnt.c: 759:   e++;
  3853   000F2E  0100               	movlb	0	; () banked
  3854   000F30  4B6F               	infsnz	efgtoa@e& (0+255),f,b
  3855   000F32  2B70               	incf	(efgtoa@e+1)& (0+255),f,b
  3856   000F34                     
  3857                           ; BSR set to: 0
  3858                           ;C:\Program Files\Microchip\xc8\v3.00\pic\sources\c99\common\doprnt.c: 760:   ou.f *= 10
      +                          .0;
  3859   000F34  C071  F028         	movff	efgtoa@ou,___flmul@b
  3860   000F38  C072  F029         	movff	efgtoa@ou+1,___flmul@b+1
  3861   000F3C  C073  F02A         	movff	efgtoa@ou+2,___flmul@b+2
  3862   000F40  C074  F02B         	movff	efgtoa@ou+3,___flmul@b+3
  3863   000F44  0E00               	movlw	0
  3864   000F46  6E2C               	movwf	___flmul@a^0,c
  3865   000F48  0E00               	movlw	0
  3866   000F4A  6E2D               	movwf	(___flmul@a+1)^0,c
  3867   000F4C  0E20               	movlw	32
  3868   000F4E  6E2E               	movwf	(___flmul@a+2)^0,c
  3869   000F50  0E41               	movlw	65
  3870   000F52  6E2F               	movwf	(___flmul@a+3)^0,c
  3871   000F54  ECB2  F00E         	call	___flmul	;wreg free
  3872   000F58  C028  F071         	movff	?___flmul,efgtoa@ou
  3873   000F5C  C029  F072         	movff	?___flmul+1,efgtoa@ou+1
  3874   000F60  C02A  F073         	movff	?___flmul+2,efgtoa@ou+2
  3875   000F64  C02B  F074         	movff	?___flmul+3,efgtoa@ou+3
  3876   000F68                     
  3877                           ;C:\Program Files\Microchip\xc8\v3.00\pic\sources\c99\common\doprnt.c: 762:   if (nmode 
      +                          == 'f') {
  3878   000F68  0E66               	movlw	102
  3879   000F6A  0100               	movlb	0	; () banked
  3880   000F6C  196A               	xorwf	efgtoa@nmode& (0+255),w,b
  3881   000F6E  A4D8               	btfss	status,2,c
  3882   000F70  EFBC  F007         	goto	u6901
  3883   000F74  EFBE  F007         	goto	u6900
  3884   000F78                     u6901:
  3885   000F78  EFC0  F007         	goto	l4833
  3886   000F7C                     u6900:
  3887   000F7C                     
  3888                           ; BSR set to: 0
  3889                           ;C:\Program Files\Microchip\xc8\v3.00\pic\sources\c99\common\doprnt.c: 764:    m++;
  3890   000F7C  4B6D               	infsnz	efgtoa@m& (0+255),f,b
  3891   000F7E  2B6E               	incf	(efgtoa@m+1)& (0+255),f,b
  3892   000F80                     l4833:
  3893                           
  3894                           ;C:\Program Files\Microchip\xc8\v3.00\pic\sources\c99\common\doprnt.c: 770:     u = ou;
  3895   000F80  C071  F088         	movff	efgtoa@ou,efgtoa@u
  3896   000F84  C072  F089         	movff	efgtoa@ou+1,efgtoa@u+1
  3897   000F88  C073  F08A         	movff	efgtoa@ou+2,efgtoa@u+2
  3898   000F8C  C074  F08B         	movff	efgtoa@ou+3,efgtoa@u+3
  3899   000F90                     
  3900                           ;C:\Program Files\Microchip\xc8\v3.00\pic\sources\c99\common\doprnt.c: 774:  ne = e;
  3901   000F90  C06F  F060         	movff	efgtoa@e,efgtoa@ne
  3902   000F94  C070  F061         	movff	efgtoa@e+1,efgtoa@ne+1
  3903   000F98                     
  3904                           ;C:\Program Files\Microchip\xc8\v3.00\pic\sources\c99\common\doprnt.c: 776:     pp = 0;
  3905   000F98  0100               	movlb	0	; () banked
  3906   000F9A  6B68               	clrf	efgtoa@pp& (0+255),b
  3907   000F9C                     
  3908                           ; BSR set to: 0
  3909                           ;C:\Program Files\Microchip\xc8\v3.00\pic\sources\c99\common\doprnt.c: 777:     t = 0;
  3910   000F9C  0E00               	movlw	0
  3911   000F9E  6F65               	movwf	(efgtoa@t+1)& (0+255),b
  3912   000FA0  0E00               	movlw	0
  3913   000FA2  6F64               	movwf	efgtoa@t& (0+255),b
  3914   000FA4                     
  3915                           ; BSR set to: 0
  3916                           ;C:\Program Files\Microchip\xc8\v3.00\pic\sources\c99\common\doprnt.c: 778:     i = 0;
  3917   000FA4  0E00               	movlw	0
  3918   000FA6  6F80               	movwf	(efgtoa@i+1)& (0+255),b
  3919   000FA8  0E00               	movlw	0
  3920   000FAA  6F7F               	movwf	efgtoa@i& (0+255),b
  3921                           
  3922                           ;C:\Program Files\Microchip\xc8\v3.00\pic\sources\c99\common\doprnt.c: 779:     while ((
      +                          i < m) && (n < (80 - 5))) {
  3923   000FAC  EFBD  F008         	goto	l4883
  3924   000FB0                     l4843:
  3925                           
  3926                           ; BSR set to: 0
  3927                           ;C:\Program Files\Microchip\xc8\v3.00\pic\sources\c99\common\doprnt.c: 780:         l = 
      +                          floorf(h/u.f);
  3928   000FB0  C077  F00F         	movff	efgtoa@h,___fldiv@b
  3929   000FB4  C078  F010         	movff	efgtoa@h+1,___fldiv@b+1
  3930   000FB8  C079  F011         	movff	efgtoa@h+2,___fldiv@b+2
  3931   000FBC  C07A  F012         	movff	efgtoa@h+3,___fldiv@b+3
  3932   000FC0  C088  F013         	movff	efgtoa@u,___fldiv@a
  3933   000FC4  C089  F014         	movff	efgtoa@u+1,___fldiv@a+1
  3934   000FC8  C08A  F015         	movff	efgtoa@u+2,___fldiv@a+2
  3935   000FCC  C08B  F016         	movff	efgtoa@u+3,___fldiv@a+3
  3936   000FD0  ECC5  F010         	call	___fldiv	;wreg free
  3937   000FD4  C00F  F028         	movff	?___fldiv,floorf@x
  3938   000FD8  C010  F029         	movff	?___fldiv+1,floorf@x+1
  3939   000FDC  C011  F02A         	movff	?___fldiv+2,floorf@x+2
  3940   000FE0  C012  F02B         	movff	?___fldiv+3,floorf@x+3
  3941   000FE4  ECED  F013         	call	_floorf	;wreg free
  3942   000FE8  C028  F07B         	movff	?_floorf,efgtoa@l
  3943   000FEC  C029  F07C         	movff	?_floorf+1,efgtoa@l+1
  3944   000FF0  C02A  F07D         	movff	?_floorf+2,efgtoa@l+2
  3945   000FF4  C02B  F07E         	movff	?_floorf+3,efgtoa@l+3
  3946                           
  3947                           ;C:\Program Files\Microchip\xc8\v3.00\pic\sources\c99\common\doprnt.c: 781:         d = 
      +                          (int)l > 9 ? 9 : (int)l;
  3948   000FF8  C07B  F001         	movff	efgtoa@l,___fltol@f1
  3949   000FFC  C07C  F002         	movff	efgtoa@l+1,___fltol@f1+1
  3950   001000  C07D  F003         	movff	efgtoa@l+2,___fltol@f1+2
  3951   001004  C07E  F004         	movff	efgtoa@l+3,___fltol@f1+3
  3952   001008  ECA9  F016         	call	___fltol	;wreg free
  3953   00100C  BE02               	btfsc	(?___fltol+1)^0,7,c
  3954   00100E  EF14  F008         	goto	u6910
  3955   001012  5002               	movf	(?___fltol+1)^0,w,c
  3956   001014  E107               	bnz	u6911
  3957   001016  0E0A               	movlw	10
  3958   001018  5C01               	subwf	?___fltol^0,w,c
  3959   00101A  B0D8               	btfsc	status,0,c
  3960   00101C  EF12  F008         	goto	u6911
  3961   001020  EF14  F008         	goto	u6910
  3962   001024                     u6911:
  3963   001024  EF24  F008         	goto	l4847
  3964   001028                     u6910:
  3965   001028  C07B  F001         	movff	efgtoa@l,___fltol@f1
  3966   00102C  C07C  F002         	movff	efgtoa@l+1,___fltol@f1+1
  3967   001030  C07D  F003         	movff	efgtoa@l+2,___fltol@f1+2
  3968   001034  C07E  F004         	movff	efgtoa@l+3,___fltol@f1+3
  3969   001038  ECA9  F016         	call	___fltol	;wreg free
  3970   00103C  C001  F06B         	movff	?___fltol,efgtoa@d
  3971   001040  C002  F06C         	movff	?___fltol+1,efgtoa@d+1
  3972   001044  EF29  F008         	goto	l900
  3973   001048                     l4847:
  3974   001048  0E00               	movlw	0
  3975   00104A  0100               	movlb	0	; () banked
  3976   00104C  6F6C               	movwf	(efgtoa@d+1)& (0+255),b
  3977   00104E  0E09               	movlw	9
  3978   001050  6F6B               	movwf	efgtoa@d& (0+255),b
  3979   001052                     l900:
  3980                           
  3981                           ;C:\Program Files\Microchip\xc8\v3.00\pic\sources\c99\common\doprnt.c: 792:   {;C:\Progr
      +                          am Files\Microchip\xc8\v3.00\pic\sources\c99\common\doprnt.c: 793:             if (!pp &
      +                          & (ne < 0)) {
  3982   001052  0100               	movlb	0	; () banked
  3983   001054  5168               	movf	efgtoa@pp& (0+255),w,b
  3984   001056  A4D8               	btfss	status,2,c
  3985   001058  EF30  F008         	goto	u6921
  3986   00105C  EF32  F008         	goto	u6920
  3987   001060                     u6921:
  3988   001060  EF5A  F008         	goto	l4867
  3989   001064                     u6920:
  3990   001064                     
  3991                           ; BSR set to: 0
  3992   001064  BF61               	btfsc	(efgtoa@ne+1)& (0+255),7,b
  3993   001066  EF39  F008         	goto	u6930
  3994   00106A  EF37  F008         	goto	u6931
  3995   00106E                     u6931:
  3996   00106E  EF5A  F008         	goto	l4867
  3997   001072                     u6930:
  3998   001072                     
  3999                           ; BSR set to: 0
  4000                           ;C:\Program Files\Microchip\xc8\v3.00\pic\sources\c99\common\doprnt.c: 794:             
      +                              dbuf[n++] = '.';
  4001   001072  0E00               	movlw	low _dbuf
  4002   001074  2586               	addwf	efgtoa@n& (0+255),w,b
  4003   001076  6ED9               	movwf	fsr2l,c
  4004   001078  0E01               	movlw	high _dbuf
  4005   00107A  2187               	addwfc	(efgtoa@n+1)& (0+255),w,b
  4006   00107C  6EDA               	movwf	fsr2h,c
  4007   00107E  0E2E               	movlw	46
  4008   001080  6EDF               	movwf	indf2,c
  4009   001082                     
  4010                           ; BSR set to: 0
  4011   001082  4B86               	infsnz	efgtoa@n& (0+255),f,b
  4012   001084  2B87               	incf	(efgtoa@n+1)& (0+255),f,b
  4013   001086                     
  4014                           ; BSR set to: 0
  4015                           ;C:\Program Files\Microchip\xc8\v3.00\pic\sources\c99\common\doprnt.c: 795:             
      +                              --w;
  4016   001086  0775               	decf	efgtoa@w& (0+255),f,b
  4017   001088  A0D8               	btfss	status,0,c
  4018   00108A  0776               	decf	(efgtoa@w+1)& (0+255),f,b
  4019   00108C                     
  4020                           ; BSR set to: 0
  4021                           ;C:\Program Files\Microchip\xc8\v3.00\pic\sources\c99\common\doprnt.c: 796:             
      +                              pp = 1;
  4022   00108C  0E01               	movlw	1
  4023   00108E  6F68               	movwf	efgtoa@pp& (0+255),b
  4024   001090  EF5A  F008         	goto	l4867
  4025   001094                     l4859:
  4026                           
  4027                           ; BSR set to: 0
  4028                           ;C:\Program Files\Microchip\xc8\v3.00\pic\sources\c99\common\doprnt.c: 799:             
      +                              dbuf[n++] = '0';
  4029   001094  0E00               	movlw	low _dbuf
  4030   001096  2586               	addwf	efgtoa@n& (0+255),w,b
  4031   001098  6ED9               	movwf	fsr2l,c
  4032   00109A  0E01               	movlw	high _dbuf
  4033   00109C  2187               	addwfc	(efgtoa@n+1)& (0+255),w,b
  4034   00109E  6EDA               	movwf	fsr2h,c
  4035   0010A0  0E30               	movlw	48
  4036   0010A2  6EDF               	movwf	indf2,c
  4037   0010A4                     
  4038                           ; BSR set to: 0
  4039   0010A4  4B86               	infsnz	efgtoa@n& (0+255),f,b
  4040   0010A6  2B87               	incf	(efgtoa@n+1)& (0+255),f,b
  4041   0010A8                     
  4042                           ; BSR set to: 0
  4043                           ;C:\Program Files\Microchip\xc8\v3.00\pic\sources\c99\common\doprnt.c: 800:             
      +                              --w;
  4044   0010A8  0775               	decf	efgtoa@w& (0+255),f,b
  4045   0010AA  A0D8               	btfss	status,0,c
  4046   0010AC  0776               	decf	(efgtoa@w+1)& (0+255),f,b
  4047   0010AE                     
  4048                           ; BSR set to: 0
  4049                           ;C:\Program Files\Microchip\xc8\v3.00\pic\sources\c99\common\doprnt.c: 801:             
      +                              --t;
  4050   0010AE  0764               	decf	efgtoa@t& (0+255),f,b
  4051   0010B0  A0D8               	btfss	status,0,c
  4052   0010B2  0765               	decf	(efgtoa@t+1)& (0+255),f,b
  4053   0010B4                     l4867:
  4054                           
  4055                           ; BSR set to: 0
  4056                           ;C:\Program Files\Microchip\xc8\v3.00\pic\sources\c99\common\doprnt.c: 798:             
      +                          while (t) {
  4057   0010B4  5164               	movf	efgtoa@t& (0+255),w,b
  4058   0010B6  1165               	iorwf	(efgtoa@t+1)& (0+255),w,b
  4059   0010B8  A4D8               	btfss	status,2,c
  4060   0010BA  EF61  F008         	goto	u6941
  4061   0010BE  EF63  F008         	goto	u6940
  4062   0010C2                     u6941:
  4063   0010C2  EF4A  F008         	goto	l4859
  4064   0010C6                     u6940:
  4065   0010C6                     
  4066                           ; BSR set to: 0
  4067                           ;C:\Program Files\Microchip\xc8\v3.00\pic\sources\c99\common\doprnt.c: 803:             
      +                          dbuf[n++] = (char)((int)'0' + d);
  4068   0010C6  0E00               	movlw	low _dbuf
  4069   0010C8  2586               	addwf	efgtoa@n& (0+255),w,b
  4070   0010CA  6ED9               	movwf	fsr2l,c
  4071   0010CC  0E01               	movlw	high _dbuf
  4072   0010CE  2187               	addwfc	(efgtoa@n+1)& (0+255),w,b
  4073   0010D0  6EDA               	movwf	fsr2h,c
  4074   0010D2  516B               	movf	efgtoa@d& (0+255),w,b
  4075   0010D4  0F30               	addlw	48
  4076   0010D6  6EDF               	movwf	indf2,c
  4077   0010D8                     
  4078                           ; BSR set to: 0
  4079   0010D8  4B86               	infsnz	efgtoa@n& (0+255),f,b
  4080   0010DA  2B87               	incf	(efgtoa@n+1)& (0+255),f,b
  4081   0010DC                     
  4082                           ; BSR set to: 0
  4083                           ;C:\Program Files\Microchip\xc8\v3.00\pic\sources\c99\common\doprnt.c: 804:             
      +                          --w;
  4084   0010DC  0775               	decf	efgtoa@w& (0+255),f,b
  4085   0010DE  A0D8               	btfss	status,0,c
  4086   0010E0  0776               	decf	(efgtoa@w+1)& (0+255),f,b
  4087   0010E2                     
  4088                           ; BSR set to: 0
  4089                           ;C:\Program Files\Microchip\xc8\v3.00\pic\sources\c99\common\doprnt.c: 805:         };C:
      +                          \Program Files\Microchip\xc8\v3.00\pic\sources\c99\common\doprnt.c: 806:         h -= l*
      +                          u.f;
  4090   0010E2  C077  F041         	movff	efgtoa@h,___flsub@b
  4091   0010E6  C078  F042         	movff	efgtoa@h+1,___flsub@b+1
  4092   0010EA  C079  F043         	movff	efgtoa@h+2,___flsub@b+2
  4093   0010EE  C07A  F044         	movff	efgtoa@h+3,___flsub@b+3
  4094   0010F2  C07B  F02C         	movff	efgtoa@l,___flmul@a
  4095   0010F6  C07C  F02D         	movff	efgtoa@l+1,___flmul@a+1
  4096   0010FA  C07D  F02E         	movff	efgtoa@l+2,___flmul@a+2
  4097   0010FE  C07E  F02F         	movff	efgtoa@l+3,___flmul@a+3
  4098   001102  C088  F028         	movff	efgtoa@u,___flmul@b
  4099   001106  C089  F029         	movff	efgtoa@u+1,___flmul@b+1
  4100   00110A  C08A  F02A         	movff	efgtoa@u+2,___flmul@b+2
  4101   00110E  C08B  F02B         	movff	efgtoa@u+3,___flmul@b+3
  4102   001112  ECB2  F00E         	call	___flmul	;wreg free
  4103   001116  C028  F045         	movff	?___flmul,___flsub@a
  4104   00111A  C029  F046         	movff	?___flmul+1,___flsub@a+1
  4105   00111E  C02A  F047         	movff	?___flmul+2,___flsub@a+2
  4106   001122  C02B  F048         	movff	?___flmul+3,___flsub@a+3
  4107   001126  EC78  F01B         	call	___flsub	;wreg free
  4108   00112A  C041  F077         	movff	?___flsub,efgtoa@h
  4109   00112E  C042  F078         	movff	?___flsub+1,efgtoa@h+1
  4110   001132  C043  F079         	movff	?___flsub+2,efgtoa@h+2
  4111   001136  C044  F07A         	movff	?___flsub+3,efgtoa@h+3
  4112   00113A                     
  4113                           ;C:\Program Files\Microchip\xc8\v3.00\pic\sources\c99\common\doprnt.c: 807:         u.f 
      +                          = u.f/10.0;
  4114   00113A  C088  F00F         	movff	efgtoa@u,___fldiv@b
  4115   00113E  C089  F010         	movff	efgtoa@u+1,___fldiv@b+1
  4116   001142  C08A  F011         	movff	efgtoa@u+2,___fldiv@b+2
  4117   001146  C08B  F012         	movff	efgtoa@u+3,___fldiv@b+3
  4118   00114A  0E00               	movlw	0
  4119   00114C  6E13               	movwf	___fldiv@a^0,c
  4120   00114E  0E00               	movlw	0
  4121   001150  6E14               	movwf	(___fldiv@a+1)^0,c
  4122   001152  0E20               	movlw	32
  4123   001154  6E15               	movwf	(___fldiv@a+2)^0,c
  4124   001156  0E41               	movlw	65
  4125   001158  6E16               	movwf	(___fldiv@a+3)^0,c
  4126   00115A  ECC5  F010         	call	___fldiv	;wreg free
  4127   00115E  C00F  F088         	movff	?___fldiv,efgtoa@u
  4128   001162  C010  F089         	movff	?___fldiv+1,efgtoa@u+1
  4129   001166  C011  F08A         	movff	?___fldiv+2,efgtoa@u+2
  4130   00116A  C012  F08B         	movff	?___fldiv+3,efgtoa@u+3
  4131   00116E                     
  4132                           ;C:\Program Files\Microchip\xc8\v3.00\pic\sources\c99\common\doprnt.c: 808:         --ne
      +                          ;
  4133   00116E  0100               	movlb	0	; () banked
  4134   001170  0760               	decf	efgtoa@ne& (0+255),f,b
  4135   001172  A0D8               	btfss	status,0,c
  4136   001174  0761               	decf	(efgtoa@ne+1)& (0+255),f,b
  4137   001176                     
  4138                           ; BSR set to: 0
  4139                           ;C:\Program Files\Microchip\xc8\v3.00\pic\sources\c99\common\doprnt.c: 809:         ++i;
  4140   001176  4B7F               	infsnz	efgtoa@i& (0+255),f,b
  4141   001178  2B80               	incf	(efgtoa@i+1)& (0+255),f,b
  4142   00117A                     l4883:
  4143                           
  4144                           ; BSR set to: 0
  4145                           ;C:\Program Files\Microchip\xc8\v3.00\pic\sources\c99\common\doprnt.c: 779:     while ((
      +                          i < m) && (n < (80 - 5))) {
  4146   00117A  516D               	movf	efgtoa@m& (0+255),w,b
  4147   00117C  5D7F               	subwf	efgtoa@i& (0+255),w,b
  4148   00117E  5180               	movf	(efgtoa@i+1)& (0+255),w,b
  4149   001180  0A80               	xorlw	128
  4150   001182  6E53               	movwf	??_efgtoa^0,c
  4151   001184  516E               	movf	(efgtoa@m+1)& (0+255),w,b
  4152   001186  0A80               	xorlw	128
  4153   001188  5853               	subwfb	??_efgtoa^0,w,c
  4154   00118A  B0D8               	btfsc	status,0,c
  4155   00118C  EFCA  F008         	goto	u6951
  4156   001190  EFCC  F008         	goto	u6950
  4157   001194                     u6951:
  4158   001194  EFDA  F008         	goto	l4887
  4159   001198                     u6950:
  4160   001198                     
  4161                           ; BSR set to: 0
  4162   001198  BF87               	btfsc	(efgtoa@n+1)& (0+255),7,b
  4163   00119A  EFD8  F008         	goto	u6961
  4164   00119E  5187               	movf	(efgtoa@n+1)& (0+255),w,b
  4165   0011A0  E109               	bnz	u6960
  4166   0011A2  0E4B               	movlw	75
  4167   0011A4  5D86               	subwf	efgtoa@n& (0+255),w,b
  4168   0011A6  A0D8               	btfss	status,0,c
  4169   0011A8  EFD8  F008         	goto	u6961
  4170   0011AC  EFDA  F008         	goto	u6960
  4171   0011B0                     u6961:
  4172   0011B0  EFD8  F007         	goto	l4843
  4173   0011B4                     u6960:
  4174   0011B4                     l4887:
  4175                           
  4176                           ; BSR set to: 0
  4177                           ;C:\Program Files\Microchip\xc8\v3.00\pic\sources\c99\common\doprnt.c: 816:  i = sizeof(
      +                          dbuf) - 1;
  4178   0011B4  0E00               	movlw	0
  4179   0011B6  6F80               	movwf	(efgtoa@i+1)& (0+255),b
  4180   0011B8  0E4F               	movlw	79
  4181   0011BA  6F7F               	movwf	efgtoa@i& (0+255),b
  4182   0011BC                     
  4183                           ; BSR set to: 0
  4184                           ;C:\Program Files\Microchip\xc8\v3.00\pic\sources\c99\common\doprnt.c: 817:     dbuf[i] 
      +                          = '\0';
  4185   0011BC  0E00               	movlw	low _dbuf
  4186   0011BE  257F               	addwf	efgtoa@i& (0+255),w,b
  4187   0011C0  6ED9               	movwf	fsr2l,c
  4188   0011C2  0E01               	movlw	high _dbuf
  4189   0011C4  2180               	addwfc	(efgtoa@i+1)& (0+255),w,b
  4190   0011C6  6EDA               	movwf	fsr2h,c
  4191   0011C8  6ADF               	clrf	indf2,c
  4192   0011CA                     
  4193                           ; BSR set to: 0
  4194                           ;C:\Program Files\Microchip\xc8\v3.00\pic\sources\c99\common\doprnt.c: 848:  memcpy(&dbu
      +                          f[i-n], &dbuf[0], (size_t)n);
  4195   0011CA  0E00               	movlw	low _dbuf
  4196   0011CC  6E53               	movwf	??_efgtoa^0,c
  4197   0011CE  0E01               	movlw	high _dbuf
  4198   0011D0  6E54               	movwf	(??_efgtoa+1)^0,c
  4199   0011D2  5186               	movf	efgtoa@n& (0+255),w,b
  4200   0011D4  5E53               	subwf	??_efgtoa^0,f,c
  4201   0011D6  5187               	movf	(efgtoa@n+1)& (0+255),w,b
  4202   0011D8  5A54               	subwfb	(??_efgtoa+1)^0,f,c
  4203   0011DA  517F               	movf	efgtoa@i& (0+255),w,b
  4204   0011DC  2453               	addwf	??_efgtoa^0,w,c
  4205   0011DE  6E01               	movwf	memcpy@d1^0,c
  4206   0011E0  5180               	movf	(efgtoa@i+1)& (0+255),w,b
  4207   0011E2  2054               	addwfc	(??_efgtoa+1)^0,w,c
  4208   0011E4  6E02               	movwf	(memcpy@d1+1)^0,c
  4209   0011E6  0E00               	movlw	low _dbuf
  4210   0011E8  6E03               	movwf	memcpy@s1^0,c
  4211   0011EA  0E01               	movlw	high _dbuf
  4212   0011EC  6E04               	movwf	(memcpy@s1+1)^0,c
  4213   0011EE  C086  F005         	movff	efgtoa@n,memcpy@n
  4214   0011F2  C087  F006         	movff	efgtoa@n+1,memcpy@n+1
  4215   0011F6  EC2D  F01B         	call	_memcpy	;wreg free
  4216   0011FA                     
  4217                           ;C:\Program Files\Microchip\xc8\v3.00\pic\sources\c99\common\doprnt.c: 849:  n = i-n;
  4218   0011FA  0100               	movlb	0	; () banked
  4219   0011FC  5186               	movf	efgtoa@n& (0+255),w,b
  4220   0011FE  5D7F               	subwf	efgtoa@i& (0+255),w,b
  4221   001200  6F86               	movwf	efgtoa@n& (0+255),b
  4222   001202  5187               	movf	(efgtoa@n+1)& (0+255),w,b
  4223   001204  5980               	subwfb	(efgtoa@i+1)& (0+255),w,b
  4224   001206  6F87               	movwf	(efgtoa@n+1)& (0+255),b
  4225   001208                     
  4226                           ; BSR set to: 0
  4227                           ;C:\Program Files\Microchip\xc8\v3.00\pic\sources\c99\common\doprnt.c: 850:  i = sign ==
      +                           0 ? 0 : 1;
  4228   001208  5181               	movf	efgtoa@sign& (0+255),w,b
  4229   00120A  A4D8               	btfss	status,2,c
  4230   00120C  EF0A  F009         	goto	u6971
  4231   001210  EF0D  F009         	goto	u6970
  4232   001214                     u6971:
  4233   001214  0E01               	movlw	1
  4234   001216  EF0E  F009         	goto	u6980
  4235   00121A                     u6970:
  4236   00121A  0E00               	movlw	0
  4237   00121C                     u6980:
  4238   00121C  6F7F               	movwf	efgtoa@i& (0+255),b
  4239   00121E  6B80               	clrf	(efgtoa@i+1)& (0+255),b
  4240   001220                     
  4241                           ; BSR set to: 0
  4242                           ;C:\Program Files\Microchip\xc8\v3.00\pic\sources\c99\common\doprnt.c: 853:  if (flags &
      +                           (1 << 1)) {
  4243   001220  A3CD               	btfss	_flags& (0+255),1,b
  4244   001222  EF15  F009         	goto	u6991
  4245   001226  EF17  F009         	goto	u6990
  4246   00122A                     u6991:
  4247   00122A  EF45  F009         	goto	l4909
  4248   00122E                     u6990:
  4249   00122E  EF27  F009         	goto	l4905
  4250   001232                     l4901:
  4251                           
  4252                           ; BSR set to: 0
  4253                           ;C:\Program Files\Microchip\xc8\v3.00\pic\sources\c99\common\doprnt.c: 855:    dbuf[--n]
      +                           = '0';
  4254   001232  0786               	decf	efgtoa@n& (0+255),f,b
  4255   001234  A0D8               	btfss	status,0,c
  4256   001236  0787               	decf	(efgtoa@n+1)& (0+255),f,b
  4257   001238  0E00               	movlw	low _dbuf
  4258   00123A  2586               	addwf	efgtoa@n& (0+255),w,b
  4259   00123C  6ED9               	movwf	fsr2l,c
  4260   00123E  0E01               	movlw	high _dbuf
  4261   001240  2187               	addwfc	(efgtoa@n+1)& (0+255),w,b
  4262   001242  6EDA               	movwf	fsr2h,c
  4263   001244  0E30               	movlw	48
  4264   001246  6EDF               	movwf	indf2,c
  4265   001248                     
  4266                           ; BSR set to: 0
  4267                           ;C:\Program Files\Microchip\xc8\v3.00\pic\sources\c99\common\doprnt.c: 856:    w--;
  4268   001248  0775               	decf	efgtoa@w& (0+255),f,b
  4269   00124A  A0D8               	btfss	status,0,c
  4270   00124C  0776               	decf	(efgtoa@w+1)& (0+255),f,b
  4271   00124E                     l4905:
  4272                           
  4273                           ; BSR set to: 0
  4274                           ;C:\Program Files\Microchip\xc8\v3.00\pic\sources\c99\common\doprnt.c: 854:   while (w >
      +                           i && n > i) {
  4275   00124E  5175               	movf	efgtoa@w& (0+255),w,b
  4276   001250  5D7F               	subwf	efgtoa@i& (0+255),w,b
  4277   001252  5180               	movf	(efgtoa@i+1)& (0+255),w,b
  4278   001254  0A80               	xorlw	128
  4279   001256  6E53               	movwf	??_efgtoa^0,c
  4280   001258  5176               	movf	(efgtoa@w+1)& (0+255),w,b
  4281   00125A  0A80               	xorlw	128
  4282   00125C  5853               	subwfb	??_efgtoa^0,w,c
  4283   00125E  B0D8               	btfsc	status,0,c
  4284   001260  EF34  F009         	goto	u7001
  4285   001264  EF36  F009         	goto	u7000
  4286   001268                     u7001:
  4287   001268  EF45  F009         	goto	l4909
  4288   00126C                     u7000:
  4289   00126C                     
  4290                           ; BSR set to: 0
  4291   00126C  5186               	movf	efgtoa@n& (0+255),w,b
  4292   00126E  5D7F               	subwf	efgtoa@i& (0+255),w,b
  4293   001270  5180               	movf	(efgtoa@i+1)& (0+255),w,b
  4294   001272  0A80               	xorlw	128
  4295   001274  6E53               	movwf	??_efgtoa^0,c
  4296   001276  5187               	movf	(efgtoa@n+1)& (0+255),w,b
  4297   001278  0A80               	xorlw	128
  4298   00127A  5853               	subwfb	??_efgtoa^0,w,c
  4299   00127C  A0D8               	btfss	status,0,c
  4300   00127E  EF43  F009         	goto	u7011
  4301   001282  EF45  F009         	goto	u7010
  4302   001286                     u7011:
  4303   001286  EF19  F009         	goto	l4901
  4304   00128A                     u7010:
  4305   00128A                     l4909:
  4306                           
  4307                           ; BSR set to: 0
  4308                           ;C:\Program Files\Microchip\xc8\v3.00\pic\sources\c99\common\doprnt.c: 861:  if (sign) {
  4309   00128A  5181               	movf	efgtoa@sign& (0+255),w,b
  4310   00128C  B4D8               	btfsc	status,2,c
  4311   00128E  EF4B  F009         	goto	u7021
  4312   001292  EF4D  F009         	goto	u7020
  4313   001296                     u7021:
  4314   001296  EF58  F009         	goto	l4913
  4315   00129A                     u7020:
  4316   00129A                     
  4317                           ; BSR set to: 0
  4318                           ;C:\Program Files\Microchip\xc8\v3.00\pic\sources\c99\common\doprnt.c: 862:   dbuf[--n] 
      +                          = sign;
  4319   00129A  0786               	decf	efgtoa@n& (0+255),f,b
  4320   00129C  A0D8               	btfss	status,0,c
  4321   00129E  0787               	decf	(efgtoa@n+1)& (0+255),f,b
  4322   0012A0  0E00               	movlw	low _dbuf
  4323   0012A2  2586               	addwf	efgtoa@n& (0+255),w,b
  4324   0012A4  6ED9               	movwf	fsr2l,c
  4325   0012A6  0E01               	movlw	high _dbuf
  4326   0012A8  2187               	addwfc	(efgtoa@n+1)& (0+255),w,b
  4327   0012AA  6EDA               	movwf	fsr2h,c
  4328   0012AC  C081  FFDF         	movff	efgtoa@sign,indf2
  4329   0012B0                     l4913:
  4330                           
  4331                           ; BSR set to: 0
  4332                           ;C:\Program Files\Microchip\xc8\v3.00\pic\sources\c99\common\doprnt.c: 864:  w -= i;
  4333   0012B0  517F               	movf	efgtoa@i& (0+255),w,b
  4334   0012B2  5F75               	subwf	efgtoa@w& (0+255),f,b
  4335   0012B4  5180               	movf	(efgtoa@i+1)& (0+255),w,b
  4336   0012B6  5B76               	subwfb	(efgtoa@w+1)& (0+255),f,b
  4337   0012B8                     
  4338                           ; BSR set to: 0
  4339                           ;C:\Program Files\Microchip\xc8\v3.00\pic\sources\c99\common\doprnt.c: 867:     return (
      +                          void) pad(fp, &dbuf[n], w);
  4340   0012B8  C04D  F00F         	movff	efgtoa@fp,pad@fp
  4341   0012BC  0E00               	movlw	low _dbuf
  4342   0012BE  2586               	addwf	efgtoa@n& (0+255),w,b
  4343   0012C0  6E10               	movwf	pad@buf^0,c
  4344   0012C2  0E01               	movlw	high _dbuf
  4345   0012C4  2187               	addwfc	(efgtoa@n+1)& (0+255),w,b
  4346   0012C6  6E11               	movwf	(pad@buf+1)^0,c
  4347   0012C8  C075  F012         	movff	efgtoa@w,pad@p
  4348   0012CC  C076  F013         	movff	efgtoa@w+1,pad@p+1
  4349   0012D0  ECE1  F019         	call	_pad	;wreg free
  4350   0012D4                     l867:
  4351   0012D4  0012               	return		;funcret
  4352   0012D6                     __end_of_efgtoa:
  4353                           	callstack 0
  4354                           
  4355 ;; *************** function _strcpy *****************
  4356 ;; Defined at:
  4357 ;;		line 3 in file "C:\Program Files\Microchip\xc8\v3.00\pic\sources\c99\common\strcpy.c"
  4358 ;; Parameters:    Size  Location     Type
  4359 ;;  dest            2    0[COMRAM] PTR unsigned char 
  4360 ;;		 -> dbuf(80), 
  4361 ;;  src             1    2[COMRAM] PTR const unsigned char 
  4362 ;;		 -> STR_19(4), STR_16(4), 
  4363 ;; Auto vars:     Size  Location     Type
  4364 ;;  d               2    4[COMRAM] PTR unsigned char 
  4365 ;;		 -> dbuf(80), 
  4366 ;; Return value:  Size  Location     Type
  4367 ;;                  2    0[COMRAM] PTR unsigned char 
  4368 ;; Registers used:
  4369 ;;		wreg, fsr2l, fsr2h, status,2, status,0, tblptrl, tblptrh, tblptru
  4370 ;; Tracked objects:
  4371 ;;		On entry : 0/0
  4372 ;;		On exit  : 0/0
  4373 ;;		Unchanged: 0/0
  4374 ;; Data sizes:     COMRAM   BANK0   BANK1   BANK2   BANK3   BANK4   BANK5   BANK6   BANK7
  4375 ;;      Params:         3       0       0       0       0       0       0       0       0
  4376 ;;      Locals:         2       0       0       0       0       0       0       0       0
  4377 ;;      Temps:          1       0       0       0       0       0       0       0       0
  4378 ;;      Totals:         6       0       0       0       0       0       0       0       0
  4379 ;;Total ram usage:        6 bytes
  4380 ;; Hardware stack levels used: 1
  4381 ;; Hardware stack levels required when called: 1
  4382 ;; This function calls:
  4383 ;;		Nothing
  4384 ;; This function is called by:
  4385 ;;		_efgtoa
  4386 ;; This function uses a non-reentrant model
  4387 ;;
  4388                           
  4389                           	psect	text6
  4390   003838                     __ptext6:
  4391                           	callstack 0
  4392   003838                     _strcpy:
  4393                           	callstack 25
  4394   003838  C001  F005         	movff	strcpy@dest,strcpy@d
  4395   00383C  C002  F006         	movff	strcpy@dest+1,strcpy@d+1
  4396   003840                     l4585:
  4397   003840  2A03               	incf	strcpy@src^0,f,c
  4398   003842  0403               	decf	strcpy@src^0,w,c
  4399   003844  6E04               	movwf	??_strcpy^0,c
  4400   003846  C004  FFF6         	movff	??_strcpy,tblptrl
  4401   00384A                     	if	1	;There is more than 1 active tblptr byte
  4402   00384A  0E08               	movlw	high __smallconst
  4403   00384C  6EF7               	movwf	tblptrh,c
  4404   00384E                     	endif
  4405   00384E                     	if	0	;tblptru may be non-zero
  4406   00384E                     	endif
  4407   00384E                     	if	0	;tblptru may be non-zero
  4408   00384E                     	endif
  4409   00384E  C005  FFD9         	movff	strcpy@d,fsr2l
  4410   003852  C006  FFDA         	movff	strcpy@d+1,fsr2h
  4411   003856  4A05               	infsnz	strcpy@d^0,f,c
  4412   003858  2A06               	incf	(strcpy@d+1)^0,f,c
  4413   00385A  0008               	tblrd		*
  4414   00385C  CFF5 FFDF          	movff	tablat,indf2
  4415   003860  50DF               	movf	indf2,w,c
  4416   003862  A4D8               	btfss	status,2,c
  4417   003864  EF36  F01C         	goto	u6431
  4418   003868  EF38  F01C         	goto	u6430
  4419   00386C                     u6431:
  4420   00386C  EF20  F01C         	goto	l4585
  4421   003870                     u6430:
  4422   003870  0012               	return		;funcret
  4423   003872                     __end_of_strcpy:
  4424                           	callstack 0
  4425                           
  4426 ;; *************** function _memcpy *****************
  4427 ;; Defined at:
  4428 ;;		line 4 in file "C:\Program Files\Microchip\xc8\v3.00\pic\sources\c99\common\memcpy.c"
  4429 ;; Parameters:    Size  Location     Type
  4430 ;;  d1              2    0[COMRAM] PTR void 
  4431 ;;		 -> dbuf(80), 
  4432 ;;  s1              2    2[COMRAM] PTR const void 
  4433 ;;		 -> dbuf(80), 
  4434 ;;  n               2    4[COMRAM] unsigned int 
  4435 ;; Auto vars:     Size  Location     Type
  4436 ;;  s               2    9[COMRAM] PTR const unsigned char 
  4437 ;;		 -> dbuf(80), 
  4438 ;;  d               2    7[COMRAM] PTR unsigned char 
  4439 ;;		 -> dbuf(80), 
  4440 ;;  tmp             1    6[COMRAM] unsigned char 
  4441 ;; Return value:  Size  Location     Type
  4442 ;;                  2    0[COMRAM] PTR void 
  4443 ;; Registers used:
  4444 ;;		wreg, fsr2l, fsr2h, status,2, status,0
  4445 ;; Tracked objects:
  4446 ;;		On entry : 0/0
  4447 ;;		On exit  : 0/0
  4448 ;;		Unchanged: 0/0
  4449 ;; Data sizes:     COMRAM   BANK0   BANK1   BANK2   BANK3   BANK4   BANK5   BANK6   BANK7
  4450 ;;      Params:         6       0       0       0       0       0       0       0       0
  4451 ;;      Locals:         5       0       0       0       0       0       0       0       0
  4452 ;;      Temps:          0       0       0       0       0       0       0       0       0
  4453 ;;      Totals:        11       0       0       0       0       0       0       0       0
  4454 ;;Total ram usage:       11 bytes
  4455 ;; Hardware stack levels used: 1
  4456 ;; Hardware stack levels required when called: 1
  4457 ;; This function calls:
  4458 ;;		Nothing
  4459 ;; This function is called by:
  4460 ;;		_efgtoa
  4461 ;; This function uses a non-reentrant model
  4462 ;;
  4463                           
  4464                           	psect	text7
  4465   00365A                     __ptext7:
  4466                           	callstack 0
  4467   00365A                     _memcpy:
  4468                           	callstack 25
  4469   00365A  C003  F00A         	movff	memcpy@s1,memcpy@s
  4470   00365E  C004  F00B         	movff	memcpy@s1+1,memcpy@s+1
  4471   003662  C001  F008         	movff	memcpy@d1,memcpy@d
  4472   003666  C002  F009         	movff	memcpy@d1+1,memcpy@d+1
  4473   00366A  EF47  F01B         	goto	l4633
  4474   00366E                     l4625:
  4475   00366E  C00A  FFD9         	movff	memcpy@s,fsr2l
  4476   003672  C00B  FFDA         	movff	memcpy@s+1,fsr2h
  4477   003676  50DF               	movf	indf2,w,c
  4478   003678  6E07               	movwf	memcpy@tmp^0,c
  4479   00367A  4A0A               	infsnz	memcpy@s^0,f,c
  4480   00367C  2A0B               	incf	(memcpy@s+1)^0,f,c
  4481   00367E  C008  FFD9         	movff	memcpy@d,fsr2l
  4482   003682  C009  FFDA         	movff	memcpy@d+1,fsr2h
  4483   003686  C007  FFDF         	movff	memcpy@tmp,indf2
  4484   00368A  4A08               	infsnz	memcpy@d^0,f,c
  4485   00368C  2A09               	incf	(memcpy@d+1)^0,f,c
  4486   00368E                     l4633:
  4487   00368E  0605               	decf	memcpy@n^0,f,c
  4488   003690  A0D8               	btfss	status,0,c
  4489   003692  0606               	decf	(memcpy@n+1)^0,f,c
  4490   003694  2805               	incf	memcpy@n^0,w,c
  4491   003696  E106               	bnz	u6551
  4492   003698  2806               	incf	(memcpy@n+1)^0,w,c
  4493   00369A  A4D8               	btfss	status,2,c
  4494   00369C  EF52  F01B         	goto	u6551
  4495   0036A0  EF54  F01B         	goto	u6550
  4496   0036A4                     u6551:
  4497   0036A4  EF37  F01B         	goto	l4625
  4498   0036A8                     u6550:
  4499   0036A8  0012               	return		;funcret
  4500   0036AA                     __end_of_memcpy:
  4501                           	callstack 0
  4502                           
  4503 ;; *************** function _labs *****************
  4504 ;; Defined at:
  4505 ;;		line 1 in file "C:\Program Files\Microchip\xc8\v3.00\pic\sources\c99\common\labs.c"
  4506 ;; Parameters:    Size  Location     Type
  4507 ;;  a               4    0[COMRAM] long 
  4508 ;; Auto vars:     Size  Location     Type
  4509 ;;		None
  4510 ;; Return value:  Size  Location     Type
  4511 ;;                  4    0[COMRAM] long 
  4512 ;; Registers used:
  4513 ;;		wreg, status,2, status,0
  4514 ;; Tracked objects:
  4515 ;;		On entry : 0/0
  4516 ;;		On exit  : 0/0
  4517 ;;		Unchanged: 0/0
  4518 ;; Data sizes:     COMRAM   BANK0   BANK1   BANK2   BANK3   BANK4   BANK5   BANK6   BANK7
  4519 ;;      Params:         4       0       0       0       0       0       0       0       0
  4520 ;;      Locals:         0       0       0       0       0       0       0       0       0
  4521 ;;      Temps:          4       0       0       0       0       0       0       0       0
  4522 ;;      Totals:         8       0       0       0       0       0       0       0       0
  4523 ;;Total ram usage:        8 bytes
  4524 ;; Hardware stack levels used: 1
  4525 ;; Hardware stack levels required when called: 1
  4526 ;; This function calls:
  4527 ;;		Nothing
  4528 ;; This function is called by:
  4529 ;;		_efgtoa
  4530 ;; This function uses a non-reentrant model
  4531 ;;
  4532                           
  4533                           	psect	text8
  4534   0035B2                     __ptext8:
  4535                           	callstack 0
  4536   0035B2                     _labs:
  4537                           	callstack 25
  4538   0035B2  BE04               	btfsc	(labs@a+3)^0,7,c
  4539   0035B4  EFDE  F01A         	goto	u6441
  4540   0035B8  EFE0  F01A         	goto	u6440
  4541   0035BC                     u6441:
  4542   0035BC  EFEA  F01A         	goto	l4591
  4543   0035C0                     u6440:
  4544   0035C0  C001  F001         	movff	labs@a,?_labs
  4545   0035C4  C002  F002         	movff	labs@a+1,?_labs+1
  4546   0035C8  C003  F003         	movff	labs@a+2,?_labs+2
  4547   0035CC  C004  F004         	movff	labs@a+3,?_labs+3
  4548   0035D0  EF03  F01B         	goto	l998
  4549   0035D4                     l4591:
  4550   0035D4  C001  F005         	movff	labs@a,??_labs
  4551   0035D8  C002  F006         	movff	labs@a+1,??_labs+1
  4552   0035DC  C003  F007         	movff	labs@a+2,??_labs+2
  4553   0035E0  C004  F008         	movff	labs@a+3,??_labs+3
  4554   0035E4  1E05               	comf	??_labs^0,f,c
  4555   0035E6  1E06               	comf	(??_labs+1)^0,f,c
  4556   0035E8  1E07               	comf	(??_labs+2)^0,f,c
  4557   0035EA  1E08               	comf	(??_labs+3)^0,f,c
  4558   0035EC  2A05               	incf	??_labs^0,f,c
  4559   0035EE  0E00               	movlw	0
  4560   0035F0  2206               	addwfc	(??_labs+1)^0,f,c
  4561   0035F2  2207               	addwfc	(??_labs+2)^0,f,c
  4562   0035F4  2208               	addwfc	(??_labs+3)^0,f,c
  4563   0035F6  C005  F001         	movff	??_labs,?_labs
  4564   0035FA  C006  F002         	movff	??_labs+1,?_labs+1
  4565   0035FE  C007  F003         	movff	??_labs+2,?_labs+2
  4566   003602  C008  F004         	movff	??_labs+3,?_labs+3
  4567   003606                     l998:
  4568   003606  0012               	return		;funcret
  4569   003608                     __end_of_labs:
  4570                           	callstack 0
  4571                           
  4572 ;; *************** function _floorf *****************
  4573 ;; Defined at:
  4574 ;;		line 3 in file "C:\Program Files\Microchip\xc8\v3.00\pic\sources\c99\common\floorf.c"
  4575 ;; Parameters:    Size  Location     Type
  4576 ;;  x               4   39[COMRAM] float 
  4577 ;; Auto vars:     Size  Location     Type
  4578 ;;  u               4   55[COMRAM] struct .
  4579 ;;  m               4   49[COMRAM] unsigned long 
  4580 ;;  e               2   53[COMRAM] int 
  4581 ;; Return value:  Size  Location     Type
  4582 ;;                  4   39[COMRAM] float 
  4583 ;; Registers used:
  4584 ;;		wreg, status,2, status,0
  4585 ;; Tracked objects:
  4586 ;;		On entry : 0/0
  4587 ;;		On exit  : 0/0
  4588 ;;		Unchanged: 0/0
  4589 ;; Data sizes:     COMRAM   BANK0   BANK1   BANK2   BANK3   BANK4   BANK5   BANK6   BANK7
  4590 ;;      Params:         4       0       0       0       0       0       0       0       0
  4591 ;;      Locals:        10       0       0       0       0       0       0       0       0
  4592 ;;      Temps:          6       0       0       0       0       0       0       0       0
  4593 ;;      Totals:        20       0       0       0       0       0       0       0       0
  4594 ;;Total ram usage:       20 bytes
  4595 ;; Hardware stack levels used: 1
  4596 ;; Hardware stack levels required when called: 1
  4597 ;; This function calls:
  4598 ;;		Nothing
  4599 ;; This function is called by:
  4600 ;;		_efgtoa
  4601 ;; This function uses a non-reentrant model
  4602 ;;
  4603                           
  4604                           	psect	text9
  4605   0027DA                     __ptext9:
  4606                           	callstack 0
  4607   0027DA                     _floorf:
  4608                           	callstack 25
  4609   0027DA  C0C1  F038         	movff	floorf@F521,floorf@u
  4610   0027DE  C0C2  F039         	movff	floorf@F521+1,floorf@u+1
  4611   0027E2  C0C3  F03A         	movff	floorf@F521+2,floorf@u+2
  4612   0027E6  C0C4  F03B         	movff	floorf@F521+3,floorf@u+3
  4613   0027EA  C028  F038         	movff	floorf@x,floorf@u
  4614   0027EE  C029  F039         	movff	floorf@x+1,floorf@u+1
  4615   0027F2  C02A  F03A         	movff	floorf@x+2,floorf@u+2
  4616   0027F6  C02B  F03B         	movff	floorf@x+3,floorf@u+3
  4617   0027FA  0E81               	movlw	129
  4618   0027FC  6E2C               	movwf	??_floorf^0,c
  4619   0027FE  0EFF               	movlw	255
  4620   002800  6E2D               	movwf	(??_floorf+1)^0,c
  4621   002802  C038  F02E         	movff	floorf@u,??_floorf+2
  4622   002806  C039  F02F         	movff	floorf@u+1,??_floorf+3
  4623   00280A  C03A  F030         	movff	floorf@u+2,??_floorf+4
  4624   00280E  C03B  F031         	movff	floorf@u+3,??_floorf+5
  4625   002812  0E18               	movlw	24
  4626   002814  EF11  F014         	goto	u6450
  4627   002818                     u6455:
  4628   002818  90D8               	bcf	status,0,c
  4629   00281A  3231               	rrcf	(??_floorf+5)^0,f,c
  4630   00281C  3230               	rrcf	(??_floorf+4)^0,f,c
  4631   00281E  322F               	rrcf	(??_floorf+3)^0,f,c
  4632   002820  322E               	rrcf	(??_floorf+2)^0,f,c
  4633   002822                     u6450:
  4634   002822  2EE8               	decfsz	wreg,f,c
  4635   002824  EF0C  F014         	goto	u6455
  4636   002828  502E               	movf	(??_floorf+2)^0,w,c
  4637   00282A  242C               	addwf	??_floorf^0,w,c
  4638   00282C  6E36               	movwf	floorf@e^0,c
  4639   00282E  0E00               	movlw	0
  4640   002830  202D               	addwfc	(??_floorf+1)^0,w,c
  4641   002832  6E37               	movwf	(floorf@e+1)^0,c
  4642   002834  BE37               	btfsc	(floorf@e+1)^0,7,c
  4643   002836  EF26  F014         	goto	u6461
  4644   00283A  5037               	movf	(floorf@e+1)^0,w,c
  4645   00283C  E109               	bnz	u6460
  4646   00283E  0E17               	movlw	23
  4647   002840  5C36               	subwf	floorf@e^0,w,c
  4648   002842  A0D8               	btfss	status,0,c
  4649   002844  EF26  F014         	goto	u6461
  4650   002848  EF28  F014         	goto	u6460
  4651   00284C                     u6461:
  4652   00284C  EF32  F014         	goto	l4601
  4653   002850                     u6460:
  4654   002850                     l4599:
  4655   002850  C028  F028         	movff	floorf@x,?_floorf
  4656   002854  C029  F029         	movff	floorf@x+1,?_floorf+1
  4657   002858  C02A  F02A         	movff	floorf@x+2,?_floorf+2
  4658   00285C  C02B  F02B         	movff	floorf@x+3,?_floorf+3
  4659   002860  EFF5  F014         	goto	l984
  4660   002864                     l4601:
  4661   002864  BE37               	btfsc	(floorf@e+1)^0,7,c
  4662   002866  EF37  F014         	goto	u6471
  4663   00286A  EF39  F014         	goto	u6470
  4664   00286E                     u6471:
  4665   00286E  EFA9  F014         	goto	l4611
  4666   002872                     u6470:
  4667   002872  C036  F02C         	movff	floorf@e,??_floorf
  4668   002876  0EFF               	movlw	255
  4669   002878  6E2D               	movwf	(??_floorf+1)^0,c
  4670   00287A  0EFF               	movlw	255
  4671   00287C  6E2E               	movwf	(??_floorf+2)^0,c
  4672   00287E  0E7F               	movlw	127
  4673   002880  6E2F               	movwf	(??_floorf+3)^0,c
  4674   002882  0E00               	movlw	0
  4675   002884  6E30               	movwf	(??_floorf+4)^0,c
  4676   002886                     u6485:
  4677   002886  662C               	tstfsz	??_floorf^0,c
  4678   002888  EF48  F014         	goto	u6486
  4679   00288C  EF50  F014         	goto	u6487
  4680   002890                     u6486:
  4681   002890  3430               	rlcf	(??_floorf+4)^0,w,c
  4682   002892  3230               	rrcf	(??_floorf+4)^0,f,c
  4683   002894  322F               	rrcf	(??_floorf+3)^0,f,c
  4684   002896  322E               	rrcf	(??_floorf+2)^0,f,c
  4685   002898  322D               	rrcf	(??_floorf+1)^0,f,c
  4686   00289A  2E2C               	decfsz	??_floorf^0,f,c
  4687   00289C  EF43  F014         	goto	u6485
  4688   0028A0                     u6487:
  4689   0028A0  C02D  F032         	movff	??_floorf+1,floorf@m
  4690   0028A4  C02E  F033         	movff	??_floorf+2,floorf@m+1
  4691   0028A8  C02F  F034         	movff	??_floorf+3,floorf@m+2
  4692   0028AC  C030  F035         	movff	??_floorf+4,floorf@m+3
  4693   0028B0  5032               	movf	floorf@m^0,w,c
  4694   0028B2  1438               	andwf	floorf@u^0,w,c
  4695   0028B4  6E2C               	movwf	??_floorf^0,c
  4696   0028B6  5033               	movf	(floorf@m+1)^0,w,c
  4697   0028B8  1439               	andwf	(floorf@u+1)^0,w,c
  4698   0028BA  6E2D               	movwf	(??_floorf+1)^0,c
  4699   0028BC  5034               	movf	(floorf@m+2)^0,w,c
  4700   0028BE  143A               	andwf	(floorf@u+2)^0,w,c
  4701   0028C0  6E2E               	movwf	(??_floorf+2)^0,c
  4702   0028C2  5035               	movf	(floorf@m+3)^0,w,c
  4703   0028C4  143B               	andwf	(floorf@u+3)^0,w,c
  4704   0028C6  6E2F               	movwf	(??_floorf+3)^0,c
  4705   0028C8  502C               	movf	??_floorf^0,w,c
  4706   0028CA  102D               	iorwf	(??_floorf+1)^0,w,c
  4707   0028CC  102E               	iorwf	(??_floorf+2)^0,w,c
  4708   0028CE  102F               	iorwf	(??_floorf+3)^0,w,c
  4709   0028D0  A4D8               	btfss	status,2,c
  4710   0028D2  EF6D  F014         	goto	u6491
  4711   0028D6  EF6F  F014         	goto	u6490
  4712   0028DA                     u6491:
  4713   0028DA  EF71  F014         	goto	l4607
  4714   0028DE                     u6490:
  4715   0028DE  EF28  F014         	goto	l4599
  4716   0028E2                     l4607:
  4717   0028E2  C038  F02C         	movff	floorf@u,??_floorf
  4718   0028E6  C039  F02D         	movff	floorf@u+1,??_floorf+1
  4719   0028EA  C03A  F02E         	movff	floorf@u+2,??_floorf+2
  4720   0028EE  C03B  F02F         	movff	floorf@u+3,??_floorf+3
  4721   0028F2  0E20               	movlw	32
  4722   0028F4  EF81  F014         	goto	u6500
  4723   0028F8                     u6505:
  4724   0028F8  90D8               	bcf	status,0,c
  4725   0028FA  322F               	rrcf	(??_floorf+3)^0,f,c
  4726   0028FC  322E               	rrcf	(??_floorf+2)^0,f,c
  4727   0028FE  322D               	rrcf	(??_floorf+1)^0,f,c
  4728   002900  322C               	rrcf	??_floorf^0,f,c
  4729   002902                     u6500:
  4730   002902  2EE8               	decfsz	wreg,f,c
  4731   002904  EF7C  F014         	goto	u6505
  4732   002908  502C               	movf	??_floorf^0,w,c
  4733   00290A  102D               	iorwf	(??_floorf+1)^0,w,c
  4734   00290C  102E               	iorwf	(??_floorf+2)^0,w,c
  4735   00290E  102F               	iorwf	(??_floorf+3)^0,w,c
  4736   002910  B4D8               	btfsc	status,2,c
  4737   002912  EF8D  F014         	goto	u6511
  4738   002916  EF8F  F014         	goto	u6510
  4739   00291A                     u6511:
  4740   00291A  EF97  F014         	goto	l987
  4741   00291E                     u6510:
  4742   00291E  5032               	movf	floorf@m^0,w,c
  4743   002920  2638               	addwf	floorf@u^0,f,c
  4744   002922  5033               	movf	(floorf@m+1)^0,w,c
  4745   002924  2239               	addwfc	(floorf@u+1)^0,f,c
  4746   002926  5034               	movf	(floorf@m+2)^0,w,c
  4747   002928  223A               	addwfc	(floorf@u+2)^0,f,c
  4748   00292A  5035               	movf	(floorf@m+3)^0,w,c
  4749   00292C  223B               	addwfc	(floorf@u+3)^0,f,c
  4750   00292E                     l987:
  4751   00292E  1C32               	comf	floorf@m^0,w,c
  4752   002930  6E2C               	movwf	??_floorf^0,c
  4753   002932  1C33               	comf	(floorf@m+1)^0,w,c
  4754   002934  6E2D               	movwf	(??_floorf+1)^0,c
  4755   002936  1C34               	comf	(floorf@m+2)^0,w,c
  4756   002938  6E2E               	movwf	(??_floorf+2)^0,c
  4757   00293A  1C35               	comf	(floorf@m+3)^0,w,c
  4758   00293C  6E2F               	movwf	(??_floorf+3)^0,c
  4759   00293E  502C               	movf	??_floorf^0,w,c
  4760   002940  1638               	andwf	floorf@u^0,f,c
  4761   002942  502D               	movf	(??_floorf+1)^0,w,c
  4762   002944  1639               	andwf	(floorf@u+1)^0,f,c
  4763   002946  502E               	movf	(??_floorf+2)^0,w,c
  4764   002948  163A               	andwf	(floorf@u+2)^0,f,c
  4765   00294A  502F               	movf	(??_floorf+3)^0,w,c
  4766   00294C  163B               	andwf	(floorf@u+3)^0,f,c
  4767   00294E  EFED  F014         	goto	l4619
  4768   002952                     l4611:
  4769   002952  C038  F02C         	movff	floorf@u,??_floorf
  4770   002956  C039  F02D         	movff	floorf@u+1,??_floorf+1
  4771   00295A  C03A  F02E         	movff	floorf@u+2,??_floorf+2
  4772   00295E  C03B  F02F         	movff	floorf@u+3,??_floorf+3
  4773   002962  0E20               	movlw	32
  4774   002964  EFB9  F014         	goto	u6520
  4775   002968                     u6525:
  4776   002968  90D8               	bcf	status,0,c
  4777   00296A  322F               	rrcf	(??_floorf+3)^0,f,c
  4778   00296C  322E               	rrcf	(??_floorf+2)^0,f,c
  4779   00296E  322D               	rrcf	(??_floorf+1)^0,f,c
  4780   002970  322C               	rrcf	??_floorf^0,f,c
  4781   002972                     u6520:
  4782   002972  2EE8               	decfsz	wreg,f,c
  4783   002974  EFB4  F014         	goto	u6525
  4784   002978  502C               	movf	??_floorf^0,w,c
  4785   00297A  102D               	iorwf	(??_floorf+1)^0,w,c
  4786   00297C  102E               	iorwf	(??_floorf+2)^0,w,c
  4787   00297E  102F               	iorwf	(??_floorf+3)^0,w,c
  4788   002980  A4D8               	btfss	status,2,c
  4789   002982  EFC5  F014         	goto	u6531
  4790   002986  EFC7  F014         	goto	u6530
  4791   00298A                     u6531:
  4792   00298A  EFD1  F014         	goto	l4615
  4793   00298E                     u6530:
  4794   00298E  0E00               	movlw	0
  4795   002990  6E38               	movwf	floorf@u^0,c
  4796   002992  0E00               	movlw	0
  4797   002994  6E39               	movwf	(floorf@u+1)^0,c
  4798   002996  0E00               	movlw	0
  4799   002998  6E3A               	movwf	(floorf@u+2)^0,c
  4800   00299A  0E00               	movlw	0
  4801   00299C  6E3B               	movwf	(floorf@u+3)^0,c
  4802   00299E  EFED  F014         	goto	l4619
  4803   0029A2                     l4615:
  4804   0029A2  90D8               	bcf	status,0,c
  4805   0029A4  3438               	rlcf	floorf@u^0,w,c
  4806   0029A6  6E2C               	movwf	??_floorf^0,c
  4807   0029A8  3439               	rlcf	(floorf@u+1)^0,w,c
  4808   0029AA  6E2D               	movwf	(??_floorf+1)^0,c
  4809   0029AC  343A               	rlcf	(floorf@u+2)^0,w,c
  4810   0029AE  6E2E               	movwf	(??_floorf+2)^0,c
  4811   0029B0  343B               	rlcf	(floorf@u+3)^0,w,c
  4812   0029B2  6E2F               	movwf	(??_floorf+3)^0,c
  4813   0029B4  502C               	movf	??_floorf^0,w,c
  4814   0029B6  102D               	iorwf	(??_floorf+1)^0,w,c
  4815   0029B8  102E               	iorwf	(??_floorf+2)^0,w,c
  4816   0029BA  102F               	iorwf	(??_floorf+3)^0,w,c
  4817   0029BC  B4D8               	btfsc	status,2,c
  4818   0029BE  EFE3  F014         	goto	u6541
  4819   0029C2  EFE5  F014         	goto	u6540
  4820   0029C6                     u6541:
  4821   0029C6  EFED  F014         	goto	l4619
  4822   0029CA                     u6540:
  4823   0029CA  0E00               	movlw	0
  4824   0029CC  6E38               	movwf	floorf@u^0,c
  4825   0029CE  0E00               	movlw	0
  4826   0029D0  6E39               	movwf	(floorf@u+1)^0,c
  4827   0029D2  0E80               	movlw	128
  4828   0029D4  6E3A               	movwf	(floorf@u+2)^0,c
  4829   0029D6  0EBF               	movlw	191
  4830   0029D8  6E3B               	movwf	(floorf@u+3)^0,c
  4831   0029DA                     l4619:
  4832   0029DA  C038  F028         	movff	floorf@u,?_floorf
  4833   0029DE  C039  F029         	movff	floorf@u+1,?_floorf+1
  4834   0029E2  C03A  F02A         	movff	floorf@u+2,?_floorf+2
  4835   0029E6  C03B  F02B         	movff	floorf@u+3,?_floorf+3
  4836   0029EA                     l984:
  4837   0029EA  0012               	return		;funcret
  4838   0029EC                     __end_of_floorf:
  4839                           	callstack 0
  4840                           
  4841 ;; *************** function ___fpclassifyf *****************
  4842 ;; Defined at:
  4843 ;;		line 4 in file "C:\Program Files\Microchip\xc8\v3.00\pic\sources\c99\common\__fpclassifyf.c"
  4844 ;; Parameters:    Size  Location     Type
  4845 ;;  x               4    0[COMRAM] float 
  4846 ;; Auto vars:     Size  Location     Type
  4847 ;;  u               4   10[COMRAM] struct .
  4848 ;;  e               2    8[COMRAM] int 
  4849 ;; Return value:  Size  Location     Type
  4850 ;;                  2    0[COMRAM] int 
  4851 ;; Registers used:
  4852 ;;		wreg, status,2, status,0
  4853 ;; Tracked objects:
  4854 ;;		On entry : 0/0
  4855 ;;		On exit  : 0/0
  4856 ;;		Unchanged: 0/0
  4857 ;; Data sizes:     COMRAM   BANK0   BANK1   BANK2   BANK3   BANK4   BANK5   BANK6   BANK7
  4858 ;;      Params:         4       0       0       0       0       0       0       0       0
  4859 ;;      Locals:         6       0       0       0       0       0       0       0       0
  4860 ;;      Temps:          4       0       0       0       0       0       0       0       0
  4861 ;;      Totals:        14       0       0       0       0       0       0       0       0
  4862 ;;Total ram usage:       14 bytes
  4863 ;; Hardware stack levels used: 1
  4864 ;; Hardware stack levels required when called: 1
  4865 ;; This function calls:
  4866 ;;		Nothing
  4867 ;; This function is called by:
  4868 ;;		_efgtoa
  4869 ;; This function uses a non-reentrant model
  4870 ;;
  4871                           
  4872                           	psect	text10
  4873   002F5C                     __ptext10:
  4874                           	callstack 0
  4875   002F5C                     ___fpclassifyf:
  4876                           	callstack 25
  4877   002F5C  C0C5  F00B         	movff	___fpclassifyf@F465,___fpclassifyf@u
  4878   002F60  C0C6  F00C         	movff	___fpclassifyf@F465+1,___fpclassifyf@u+1
  4879   002F64  C0C7  F00D         	movff	___fpclassifyf@F465+2,___fpclassifyf@u+2
  4880   002F68  C0C8  F00E         	movff	___fpclassifyf@F465+3,___fpclassifyf@u+3
  4881   002F6C  C001  F00B         	movff	___fpclassifyf@x,___fpclassifyf@u
  4882   002F70  C002  F00C         	movff	___fpclassifyf@x+1,___fpclassifyf@u+1
  4883   002F74  C003  F00D         	movff	___fpclassifyf@x+2,___fpclassifyf@u+2
  4884   002F78  C004  F00E         	movff	___fpclassifyf@x+3,___fpclassifyf@u+3
  4885   002F7C  C00B  F005         	movff	___fpclassifyf@u,??___fpclassifyf
  4886   002F80  C00C  F006         	movff	___fpclassifyf@u+1,??___fpclassifyf+1
  4887   002F84  C00D  F007         	movff	___fpclassifyf@u+2,??___fpclassifyf+2
  4888   002F88  C00E  F008         	movff	___fpclassifyf@u+3,??___fpclassifyf+3
  4889   002F8C  0E18               	movlw	24
  4890   002F8E  EFCE  F017         	goto	u6360
  4891   002F92                     u6365:
  4892   002F92  90D8               	bcf	status,0,c
  4893   002F94  3208               	rrcf	(??___fpclassifyf+3)^0,f,c
  4894   002F96  3207               	rrcf	(??___fpclassifyf+2)^0,f,c
  4895   002F98  3206               	rrcf	(??___fpclassifyf+1)^0,f,c
  4896   002F9A  3205               	rrcf	??___fpclassifyf^0,f,c
  4897   002F9C                     u6360:
  4898   002F9C  2EE8               	decfsz	wreg,f,c
  4899   002F9E  EFC9  F017         	goto	u6365
  4900   002FA2  5005               	movf	??___fpclassifyf^0,w,c
  4901   002FA4  6E09               	movwf	___fpclassifyf@e^0,c
  4902   002FA6  6A0A               	clrf	(___fpclassifyf@e+1)^0,c
  4903   002FA8  5009               	movf	___fpclassifyf@e^0,w,c
  4904   002FAA  100A               	iorwf	(___fpclassifyf@e+1)^0,w,c
  4905   002FAC  A4D8               	btfss	status,2,c
  4906   002FAE  EFDB  F017         	goto	u6371
  4907   002FB2  EFDD  F017         	goto	u6370
  4908   002FB6                     u6371:
  4909   002FB6  EFFD  F017         	goto	l4573
  4910   002FBA                     u6370:
  4911   002FBA  90D8               	bcf	status,0,c
  4912   002FBC  340B               	rlcf	___fpclassifyf@u^0,w,c
  4913   002FBE  6E05               	movwf	??___fpclassifyf^0,c
  4914   002FC0  340C               	rlcf	(___fpclassifyf@u+1)^0,w,c
  4915   002FC2  6E06               	movwf	(??___fpclassifyf+1)^0,c
  4916   002FC4  340D               	rlcf	(___fpclassifyf@u+2)^0,w,c
  4917   002FC6  6E07               	movwf	(??___fpclassifyf+2)^0,c
  4918   002FC8  340E               	rlcf	(___fpclassifyf@u+3)^0,w,c
  4919   002FCA  6E08               	movwf	(??___fpclassifyf+3)^0,c
  4920   002FCC  5005               	movf	??___fpclassifyf^0,w,c
  4921   002FCE  1006               	iorwf	(??___fpclassifyf+1)^0,w,c
  4922   002FD0  1007               	iorwf	(??___fpclassifyf+2)^0,w,c
  4923   002FD2  1008               	iorwf	(??___fpclassifyf+3)^0,w,c
  4924   002FD4  A4D8               	btfss	status,2,c
  4925   002FD6  EFEF  F017         	goto	u6381
  4926   002FDA  EFF1  F017         	goto	u6380
  4927   002FDE                     u6381:
  4928   002FDE  EFF7  F017         	goto	l4569
  4929   002FE2                     u6380:
  4930   002FE2  0E00               	movlw	0
  4931   002FE4  6E02               	movwf	(?___fpclassifyf+1)^0,c
  4932   002FE6  0E02               	movlw	2
  4933   002FE8  6E01               	movwf	?___fpclassifyf^0,c
  4934   002FEA  EF2C  F018         	goto	l970
  4935   002FEE                     l4569:
  4936   002FEE  0E00               	movlw	0
  4937   002FF0  6E02               	movwf	(?___fpclassifyf+1)^0,c
  4938   002FF2  0E03               	movlw	3
  4939   002FF4  6E01               	movwf	?___fpclassifyf^0,c
  4940   002FF6  EF2C  F018         	goto	l970
  4941   002FFA                     l4573:
  4942   002FFA  2809               	incf	___fpclassifyf@e^0,w,c
  4943   002FFC  100A               	iorwf	(___fpclassifyf@e+1)^0,w,c
  4944   002FFE  A4D8               	btfss	status,2,c
  4945   003000  EF04  F018         	goto	u6391
  4946   003004  EF06  F018         	goto	u6390
  4947   003008                     u6391:
  4948   003008  EF28  F018         	goto	l4579
  4949   00300C                     u6390:
  4950   00300C  C00B  F005         	movff	___fpclassifyf@u,??___fpclassifyf
  4951   003010  C00C  F006         	movff	___fpclassifyf@u+1,??___fpclassifyf+1
  4952   003014  C00D  F007         	movff	___fpclassifyf@u+2,??___fpclassifyf+2
  4953   003018  C00E  F008         	movff	___fpclassifyf@u+3,??___fpclassifyf+3
  4954   00301C  0E09               	movlw	9
  4955   00301E                     u6405:
  4956   00301E  90D8               	bcf	status,0,c
  4957   003020  3605               	rlcf	??___fpclassifyf^0,f,c
  4958   003022  3606               	rlcf	(??___fpclassifyf+1)^0,f,c
  4959   003024  3607               	rlcf	(??___fpclassifyf+2)^0,f,c
  4960   003026  3608               	rlcf	(??___fpclassifyf+3)^0,f,c
  4961   003028  2EE8               	decfsz	wreg,f,c
  4962   00302A  EF0F  F018         	goto	u6405
  4963   00302E  5005               	movf	??___fpclassifyf^0,w,c
  4964   003030  1006               	iorwf	(??___fpclassifyf+1)^0,w,c
  4965   003032  1007               	iorwf	(??___fpclassifyf+2)^0,w,c
  4966   003034  1008               	iorwf	(??___fpclassifyf+3)^0,w,c
  4967   003036  B4D8               	btfsc	status,2,c
  4968   003038  EF20  F018         	goto	u6411
  4969   00303C  EF23  F018         	goto	u6410
  4970   003040                     u6411:
  4971   003040  0E01               	movlw	1
  4972   003042  EF24  F018         	goto	u6420
  4973   003046                     u6410:
  4974   003046  0E00               	movlw	0
  4975   003048                     u6420:
  4976   003048  6E01               	movwf	?___fpclassifyf^0,c
  4977   00304A  6A02               	clrf	(?___fpclassifyf+1)^0,c
  4978   00304C  EF2C  F018         	goto	l970
  4979   003050                     l4579:
  4980   003050  0E00               	movlw	0
  4981   003052  6E02               	movwf	(?___fpclassifyf+1)^0,c
  4982   003054  0E04               	movlw	4
  4983   003056  6E01               	movwf	?___fpclassifyf^0,c
  4984   003058                     l970:
  4985   003058  0012               	return		;funcret
  4986   00305A                     __end_of___fpclassifyf:
  4987                           	callstack 0
  4988                           
  4989 ;; *************** function ___fltol *****************
  4990 ;; Defined at:
  4991 ;;		line 43 in file "C:\Program Files\Microchip\xc8\v3.00\pic\sources\c99\common\fltol.c"
  4992 ;; Parameters:    Size  Location     Type
  4993 ;;  f1              4    0[COMRAM] int 
  4994 ;; Auto vars:     Size  Location     Type
  4995 ;;  exp1            1    9[COMRAM] unsigned char 
  4996 ;;  sign1           1    8[COMRAM] unsigned char 
  4997 ;; Return value:  Size  Location     Type
  4998 ;;                  4    0[COMRAM] long 
  4999 ;; Registers used:
  5000 ;;		wreg, status,2, status,0
  5001 ;; Tracked objects:
  5002 ;;		On entry : 0/0
  5003 ;;		On exit  : 0/0
  5004 ;;		Unchanged: 0/0
  5005 ;; Data sizes:     COMRAM   BANK0   BANK1   BANK2   BANK3   BANK4   BANK5   BANK6   BANK7
  5006 ;;      Params:         4       0       0       0       0       0       0       0       0
  5007 ;;      Locals:         2       0       0       0       0       0       0       0       0
  5008 ;;      Temps:          4       0       0       0       0       0       0       0       0
  5009 ;;      Totals:        10       0       0       0       0       0       0       0       0
  5010 ;;Total ram usage:       10 bytes
  5011 ;; Hardware stack levels used: 1
  5012 ;; Hardware stack levels required when called: 1
  5013 ;; This function calls:
  5014 ;;		Nothing
  5015 ;; This function is called by:
  5016 ;;		_efgtoa
  5017 ;; This function uses a non-reentrant model
  5018 ;;
  5019                           
  5020                           	psect	text11
  5021   002D52                     __ptext11:
  5022                           	callstack 0
  5023   002D52                     ___fltol:
  5024                           	callstack 25
  5025   002D52  3403               	rlcf	(___fltol@f1+2)^0,w,c
  5026   002D54  3404               	rlcf	(___fltol@f1+3)^0,w,c
  5027   002D56  6E0A               	movwf	___fltol@exp1^0,c
  5028   002D58  500A               	movf	___fltol@exp1^0,w,c
  5029   002D5A  A4D8               	btfss	status,2,c
  5030   002D5C  EFB2  F016         	goto	u6241
  5031   002D60  EFB4  F016         	goto	u6240
  5032   002D64                     u6241:
  5033   002D64  EFBE  F016         	goto	l4503
  5034   002D68                     u6240:
  5035   002D68                     l4499:
  5036   002D68  0E00               	movlw	0
  5037   002D6A  6E01               	movwf	?___fltol^0,c
  5038   002D6C  0E00               	movlw	0
  5039   002D6E  6E02               	movwf	(?___fltol+1)^0,c
  5040   002D70  0E00               	movlw	0
  5041   002D72  6E03               	movwf	(?___fltol+2)^0,c
  5042   002D74  0E00               	movlw	0
  5043   002D76  6E04               	movwf	(?___fltol+3)^0,c
  5044   002D78  EF2B  F017         	goto	l419
  5045   002D7C                     l4503:
  5046   002D7C  C001  F005         	movff	___fltol@f1,??___fltol
  5047   002D80  C002  F006         	movff	___fltol@f1+1,??___fltol+1
  5048   002D84  C003  F007         	movff	___fltol@f1+2,??___fltol+2
  5049   002D88  C004  F008         	movff	___fltol@f1+3,??___fltol+3
  5050   002D8C  0E20               	movlw	32
  5051   002D8E  EFCE  F016         	goto	u6250
  5052   002D92                     u6255:
  5053   002D92  90D8               	bcf	status,0,c
  5054   002D94  3208               	rrcf	(??___fltol+3)^0,f,c
  5055   002D96  3207               	rrcf	(??___fltol+2)^0,f,c
  5056   002D98  3206               	rrcf	(??___fltol+1)^0,f,c
  5057   002D9A  3205               	rrcf	??___fltol^0,f,c
  5058   002D9C                     u6250:
  5059   002D9C  2EE8               	decfsz	wreg,f,c
  5060   002D9E  EFC9  F016         	goto	u6255
  5061   002DA2  5005               	movf	??___fltol^0,w,c
  5062   002DA4  6E09               	movwf	___fltol@sign1^0,c
  5063   002DA6  8E03               	bsf	(___fltol@f1+2)^0,7,c
  5064   002DA8  0EFF               	movlw	255
  5065   002DAA  1601               	andwf	___fltol@f1^0,f,c
  5066   002DAC  0EFF               	movlw	255
  5067   002DAE  1602               	andwf	(___fltol@f1+1)^0,f,c
  5068   002DB0  0EFF               	movlw	255
  5069   002DB2  1603               	andwf	(___fltol@f1+2)^0,f,c
  5070   002DB4  0E00               	movlw	0
  5071   002DB6  1604               	andwf	(___fltol@f1+3)^0,f,c
  5072   002DB8  0E96               	movlw	150
  5073   002DBA  5E0A               	subwf	___fltol@exp1^0,f,c
  5074   002DBC  BE0A               	btfsc	___fltol@exp1^0,7,c
  5075   002DBE  EFE5  F016         	goto	u6260
  5076   002DC2  EFE3  F016         	goto	u6261
  5077   002DC6                     u6261:
  5078   002DC6  EFFB  F016         	goto	l4523
  5079   002DCA                     u6260:
  5080   002DCA  500A               	movf	___fltol@exp1^0,w,c
  5081   002DCC  0A80               	xorlw	128
  5082   002DCE  0F97               	addlw	151
  5083   002DD0  B0D8               	btfsc	status,0,c
  5084   002DD2  EFED  F016         	goto	u6271
  5085   002DD6  EFEF  F016         	goto	u6270
  5086   002DDA                     u6271:
  5087   002DDA  EFF1  F016         	goto	l4519
  5088   002DDE                     u6270:
  5089   002DDE  EFB4  F016         	goto	l4499
  5090   002DE2                     l4519:
  5091   002DE2  90D8               	bcf	status,0,c
  5092   002DE4  3204               	rrcf	(___fltol@f1+3)^0,f,c
  5093   002DE6  3203               	rrcf	(___fltol@f1+2)^0,f,c
  5094   002DE8  3202               	rrcf	(___fltol@f1+1)^0,f,c
  5095   002DEA  3201               	rrcf	___fltol@f1^0,f,c
  5096   002DEC  3E0A               	incfsz	___fltol@exp1^0,f,c
  5097   002DEE  EFF1  F016         	goto	l4519
  5098   002DF2  EF13  F017         	goto	l4533
  5099   002DF6                     l4523:
  5100   002DF6  0E1F               	movlw	31
  5101   002DF8  640A               	cpfsgt	___fltol@exp1^0,c
  5102   002DFA  EF01  F017         	goto	u6281
  5103   002DFE  EF03  F017         	goto	u6280
  5104   002E02                     u6281:
  5105   002E02  EF0B  F017         	goto	l4531
  5106   002E06                     u6280:
  5107   002E06  EFB4  F016         	goto	l4499
  5108   002E0A                     l4529:
  5109   002E0A  90D8               	bcf	status,0,c
  5110   002E0C  3601               	rlcf	___fltol@f1^0,f,c
  5111   002E0E  3602               	rlcf	(___fltol@f1+1)^0,f,c
  5112   002E10  3603               	rlcf	(___fltol@f1+2)^0,f,c
  5113   002E12  3604               	rlcf	(___fltol@f1+3)^0,f,c
  5114   002E14  060A               	decf	___fltol@exp1^0,f,c
  5115   002E16                     l4531:
  5116   002E16  500A               	movf	___fltol@exp1^0,w,c
  5117   002E18  A4D8               	btfss	status,2,c
  5118   002E1A  EF11  F017         	goto	u6291
  5119   002E1E  EF13  F017         	goto	u6290
  5120   002E22                     u6291:
  5121   002E22  EF05  F017         	goto	l4529
  5122   002E26                     u6290:
  5123   002E26                     l4533:
  5124   002E26  5009               	movf	___fltol@sign1^0,w,c
  5125   002E28  B4D8               	btfsc	status,2,c
  5126   002E2A  EF19  F017         	goto	u6301
  5127   002E2E  EF1B  F017         	goto	u6300
  5128   002E32                     u6301:
  5129   002E32  EF23  F017         	goto	l4537
  5130   002E36                     u6300:
  5131   002E36  1E04               	comf	(___fltol@f1+3)^0,f,c
  5132   002E38  1E03               	comf	(___fltol@f1+2)^0,f,c
  5133   002E3A  1E02               	comf	(___fltol@f1+1)^0,f,c
  5134   002E3C  6C01               	negf	___fltol@f1^0,c
  5135   002E3E  0E00               	movlw	0
  5136   002E40  2202               	addwfc	(___fltol@f1+1)^0,f,c
  5137   002E42  2203               	addwfc	(___fltol@f1+2)^0,f,c
  5138   002E44  2204               	addwfc	(___fltol@f1+3)^0,f,c
  5139   002E46                     l4537:
  5140   002E46  C001  F001         	movff	___fltol@f1,?___fltol
  5141   002E4A  C002  F002         	movff	___fltol@f1+1,?___fltol+1
  5142   002E4E  C003  F003         	movff	___fltol@f1+2,?___fltol+2
  5143   002E52  C004  F004         	movff	___fltol@f1+3,?___fltol+3
  5144   002E56                     l419:
  5145   002E56  0012               	return		;funcret
  5146   002E58                     __end_of___fltol:
  5147                           	callstack 0
  5148                           
  5149 ;; *************** function ___flsub *****************
  5150 ;; Defined at:
  5151 ;;		line 245 in file "C:\Program Files\Microchip\xc8\v3.00\pic\sources\c99\common\sprcadd.c"
  5152 ;; Parameters:    Size  Location     Type
  5153 ;;  b               4   64[COMRAM] long 
  5154 ;;  a               4   68[COMRAM] long 
  5155 ;; Auto vars:     Size  Location     Type
  5156 ;;		None
  5157 ;; Return value:  Size  Location     Type
  5158 ;;                  4   64[COMRAM] long 
  5159 ;; Registers used:
  5160 ;;		wreg, status,2, status,0, cstack
  5161 ;; Tracked objects:
  5162 ;;		On entry : 0/0
  5163 ;;		On exit  : 0/0
  5164 ;;		Unchanged: 0/0
  5165 ;; Data sizes:     COMRAM   BANK0   BANK1   BANK2   BANK3   BANK4   BANK5   BANK6   BANK7
  5166 ;;      Params:         8       0       0       0       0       0       0       0       0
  5167 ;;      Locals:         0       0       0       0       0       0       0       0       0
  5168 ;;      Temps:          0       0       0       0       0       0       0       0       0
  5169 ;;      Totals:         8       0       0       0       0       0       0       0       0
  5170 ;;Total ram usage:        8 bytes
  5171 ;; Hardware stack levels used: 1
  5172 ;; Hardware stack levels required when called: 2
  5173 ;; This function calls:
  5174 ;;		___fladd
  5175 ;; This function is called by:
  5176 ;;		_efgtoa
  5177 ;; This function uses a non-reentrant model
  5178 ;;
  5179                           
  5180                           	psect	text12
  5181   0036F0                     __ptext12:
  5182                           	callstack 0
  5183   0036F0                     ___flsub:
  5184                           	callstack 24
  5185   0036F0  0E00               	movlw	0
  5186   0036F2  1A45               	xorwf	___flsub@a^0,f,c
  5187   0036F4  0E00               	movlw	0
  5188   0036F6  1A46               	xorwf	(___flsub@a+1)^0,f,c
  5189   0036F8  0E00               	movlw	0
  5190   0036FA  1A47               	xorwf	(___flsub@a+2)^0,f,c
  5191   0036FC  0E80               	movlw	128
  5192   0036FE  1A48               	xorwf	(___flsub@a+3)^0,f,c
  5193   003700  C041  F001         	movff	___flsub@b,___fladd@b
  5194   003704  C042  F002         	movff	___flsub@b+1,___fladd@b+1
  5195   003708  C043  F003         	movff	___flsub@b+2,___fladd@b+2
  5196   00370C  C044  F004         	movff	___flsub@b+3,___fladd@b+3
  5197   003710  C045  F005         	movff	___flsub@a,___fladd@a
  5198   003714  C046  F006         	movff	___flsub@a+1,___fladd@a+1
  5199   003718  C047  F007         	movff	___flsub@a+2,___fladd@a+2
  5200   00371C  C048  F008         	movff	___flsub@a+3,___fladd@a+3
  5201   003720  EC57  F00C         	call	___fladd	;wreg free
  5202   003724  C001  F041         	movff	?___fladd,?___flsub
  5203   003728  C002  F042         	movff	?___fladd+1,?___flsub+1
  5204   00372C  C003  F043         	movff	?___fladd+2,?___flsub+2
  5205   003730  C004  F044         	movff	?___fladd+3,?___flsub+3
  5206   003734  0012               	return		;funcret
  5207   003736                     __end_of___flsub:
  5208                           	callstack 0
  5209                           
  5210 ;; *************** function ___fladd *****************
  5211 ;; Defined at:
  5212 ;;		line 10 in file "C:\Program Files\Microchip\xc8\v3.00\pic\sources\c99\common\sprcadd.c"
  5213 ;; Parameters:    Size  Location     Type
  5214 ;;  b               4    0[COMRAM] long 
  5215 ;;  a               4    4[COMRAM] long 
  5216 ;; Auto vars:     Size  Location     Type
  5217 ;;  grs             1   15[COMRAM] unsigned char 
  5218 ;;  bexp            1   14[COMRAM] unsigned char 
  5219 ;;  aexp            1   13[COMRAM] unsigned char 
  5220 ;;  signs           1   12[COMRAM] unsigned char 
  5221 ;; Return value:  Size  Location     Type
  5222 ;;                  4    0[COMRAM] unsigned char 
  5223 ;; Registers used:
  5224 ;;		wreg, status,2, status,0
  5225 ;; Tracked objects:
  5226 ;;		On entry : 0/0
  5227 ;;		On exit  : 0/0
  5228 ;;		Unchanged: 0/0
  5229 ;; Data sizes:     COMRAM   BANK0   BANK1   BANK2   BANK3   BANK4   BANK5   BANK6   BANK7
  5230 ;;      Params:         8       0       0       0       0       0       0       0       0
  5231 ;;      Locals:         4       0       0       0       0       0       0       0       0
  5232 ;;      Temps:          4       0       0       0       0       0       0       0       0
  5233 ;;      Totals:        16       0       0       0       0       0       0       0       0
  5234 ;;Total ram usage:       16 bytes
  5235 ;; Hardware stack levels used: 1
  5236 ;; Hardware stack levels required when called: 1
  5237 ;; This function calls:
  5238 ;;		Nothing
  5239 ;; This function is called by:
  5240 ;;		___flsub
  5241 ;;		_efgtoa
  5242 ;; This function uses a non-reentrant model
  5243 ;;
  5244                           
  5245                           	psect	text13
  5246   0018AE                     __ptext13:
  5247                           	callstack 0
  5248   0018AE                     ___fladd:
  5249                           	callstack 24
  5250   0018AE  5004               	movf	(___fladd@b+3)^0,w,c
  5251   0018B0  0B80               	andlw	128
  5252   0018B2  6E0D               	movwf	___fladd@signs^0,c
  5253   0018B4  5004               	movf	(___fladd@b+3)^0,w,c
  5254   0018B6  2404               	addwf	(___fladd@b+3)^0,w,c
  5255   0018B8  6E0F               	movwf	___fladd@bexp^0,c
  5256   0018BA  AE03               	btfss	(___fladd@b+2)^0,7,c
  5257   0018BC  EF62  F00C         	goto	u5211
  5258   0018C0  EF64  F00C         	goto	u5210
  5259   0018C4                     u5211:
  5260   0018C4  EF65  F00C         	goto	l3905
  5261   0018C8                     u5210:
  5262   0018C8  800F               	bsf	___fladd@bexp^0,0,c
  5263   0018CA                     l3905:
  5264   0018CA  500F               	movf	___fladd@bexp^0,w,c
  5265   0018CC  B4D8               	btfsc	status,2,c
  5266   0018CE  EF6B  F00C         	goto	u5221
  5267   0018D2  EF6D  F00C         	goto	u5220
  5268   0018D6                     u5221:
  5269   0018D6  EF81  F00C         	goto	l3915
  5270   0018DA                     u5220:
  5271   0018DA  280F               	incf	___fladd@bexp^0,w,c
  5272   0018DC  A4D8               	btfss	status,2,c
  5273   0018DE  EF73  F00C         	goto	u5231
  5274   0018E2  EF75  F00C         	goto	u5230
  5275   0018E6                     u5231:
  5276   0018E6  EF7D  F00C         	goto	l3911
  5277   0018EA                     u5230:
  5278   0018EA  0E00               	movlw	0
  5279   0018EC  6E01               	movwf	___fladd@b^0,c
  5280   0018EE  0E00               	movlw	0
  5281   0018F0  6E02               	movwf	(___fladd@b+1)^0,c
  5282   0018F2  0E00               	movlw	0
  5283   0018F4  6E03               	movwf	(___fladd@b+2)^0,c
  5284   0018F6  0E00               	movlw	0
  5285   0018F8  6E04               	movwf	(___fladd@b+3)^0,c
  5286   0018FA                     l3911:
  5287   0018FA  8E03               	bsf	(___fladd@b+2)^0,7,c
  5288   0018FC  6A04               	clrf	(___fladd@b+3)^0,c
  5289   0018FE  EF89  F00C         	goto	l3917
  5290   001902                     l3915:
  5291   001902  0E00               	movlw	0
  5292   001904  6E01               	movwf	___fladd@b^0,c
  5293   001906  0E00               	movlw	0
  5294   001908  6E02               	movwf	(___fladd@b+1)^0,c
  5295   00190A  0E00               	movlw	0
  5296   00190C  6E03               	movwf	(___fladd@b+2)^0,c
  5297   00190E  0E00               	movlw	0
  5298   001910  6E04               	movwf	(___fladd@b+3)^0,c
  5299   001912                     l3917:
  5300   001912  5008               	movf	(___fladd@a+3)^0,w,c
  5301   001914  0B80               	andlw	128
  5302   001916  6E0E               	movwf	___fladd@aexp^0,c
  5303   001918  500D               	movf	___fladd@signs^0,w,c
  5304   00191A  180E               	xorwf	___fladd@aexp^0,w,c
  5305   00191C  B4D8               	btfsc	status,2,c
  5306   00191E  EF93  F00C         	goto	u5241
  5307   001922  EF95  F00C         	goto	u5240
  5308   001926                     u5241:
  5309   001926  EF96  F00C         	goto	l3923
  5310   00192A                     u5240:
  5311   00192A  8C0D               	bsf	___fladd@signs^0,6,c
  5312   00192C                     l3923:
  5313   00192C  5008               	movf	(___fladd@a+3)^0,w,c
  5314   00192E  2408               	addwf	(___fladd@a+3)^0,w,c
  5315   001930  6E0E               	movwf	___fladd@aexp^0,c
  5316   001932  AE07               	btfss	(___fladd@a+2)^0,7,c
  5317   001934  EF9E  F00C         	goto	u5251
  5318   001938  EFA0  F00C         	goto	u5250
  5319   00193C                     u5251:
  5320   00193C  EFA1  F00C         	goto	l3929
  5321   001940                     u5250:
  5322   001940  800E               	bsf	___fladd@aexp^0,0,c
  5323   001942                     l3929:
  5324   001942  500E               	movf	___fladd@aexp^0,w,c
  5325   001944  B4D8               	btfsc	status,2,c
  5326   001946  EFA7  F00C         	goto	u5261
  5327   00194A  EFA9  F00C         	goto	u5260
  5328   00194E                     u5261:
  5329   00194E  EFBD  F00C         	goto	l3939
  5330   001952                     u5260:
  5331   001952  280E               	incf	___fladd@aexp^0,w,c
  5332   001954  A4D8               	btfss	status,2,c
  5333   001956  EFAF  F00C         	goto	u5271
  5334   00195A  EFB1  F00C         	goto	u5270
  5335   00195E                     u5271:
  5336   00195E  EFB9  F00C         	goto	l3935
  5337   001962                     u5270:
  5338   001962  0E00               	movlw	0
  5339   001964  6E05               	movwf	___fladd@a^0,c
  5340   001966  0E00               	movlw	0
  5341   001968  6E06               	movwf	(___fladd@a+1)^0,c
  5342   00196A  0E00               	movlw	0
  5343   00196C  6E07               	movwf	(___fladd@a+2)^0,c
  5344   00196E  0E00               	movlw	0
  5345   001970  6E08               	movwf	(___fladd@a+3)^0,c
  5346   001972                     l3935:
  5347   001972  8E07               	bsf	(___fladd@a+2)^0,7,c
  5348   001974  6A08               	clrf	(___fladd@a+3)^0,c
  5349   001976  EFC5  F00C         	goto	l3941
  5350   00197A                     l3939:
  5351   00197A  0E00               	movlw	0
  5352   00197C  6E05               	movwf	___fladd@a^0,c
  5353   00197E  0E00               	movlw	0
  5354   001980  6E06               	movwf	(___fladd@a+1)^0,c
  5355   001982  0E00               	movlw	0
  5356   001984  6E07               	movwf	(___fladd@a+2)^0,c
  5357   001986  0E00               	movlw	0
  5358   001988  6E08               	movwf	(___fladd@a+3)^0,c
  5359   00198A                     l3941:
  5360   00198A  500F               	movf	___fladd@bexp^0,w,c
  5361   00198C  5C0E               	subwf	___fladd@aexp^0,w,c
  5362   00198E  B0D8               	btfsc	status,0,c
  5363   001990  EFCC  F00C         	goto	u5281
  5364   001994  EFCE  F00C         	goto	u5280
  5365   001998                     u5281:
  5366   001998  EFF5  F00C         	goto	l3977
  5367   00199C                     u5280:
  5368   00199C  AC0D               	btfss	___fladd@signs^0,6,c
  5369   00199E  EFD3  F00C         	goto	u5291
  5370   0019A2  EFD5  F00C         	goto	u5290
  5371   0019A6                     u5291:
  5372   0019A6  EFD7  F00C         	goto	l3947
  5373   0019AA                     u5290:
  5374   0019AA  0E80               	movlw	128
  5375   0019AC  1A0D               	xorwf	___fladd@signs^0,f,c
  5376   0019AE                     l3947:
  5377   0019AE  C00F  F010         	movff	___fladd@bexp,___fladd@grs
  5378   0019B2  C00E  F00F         	movff	___fladd@aexp,___fladd@bexp
  5379   0019B6  C010  F00E         	movff	___fladd@grs,___fladd@aexp
  5380   0019BA  C001  F010         	movff	___fladd@b,___fladd@grs
  5381   0019BE  C005  F001         	movff	___fladd@a,___fladd@b
  5382   0019C2  C010  F005         	movff	___fladd@grs,___fladd@a
  5383   0019C6  C002  F010         	movff	___fladd@b+1,___fladd@grs
  5384   0019CA  C006  F002         	movff	___fladd@a+1,___fladd@b+1
  5385   0019CE  C010  F006         	movff	___fladd@grs,___fladd@a+1
  5386   0019D2  C003  F010         	movff	___fladd@b+2,___fladd@grs
  5387   0019D6  C007  F003         	movff	___fladd@a+2,___fladd@b+2
  5388   0019DA  C010  F007         	movff	___fladd@grs,___fladd@a+2
  5389   0019DE  C004  F010         	movff	___fladd@b+3,___fladd@grs
  5390   0019E2  C008  F004         	movff	___fladd@a+3,___fladd@b+3
  5391   0019E6  C010  F008         	movff	___fladd@grs,___fladd@a+3
  5392   0019EA                     l3977:
  5393   0019EA  6A10               	clrf	___fladd@grs^0,c
  5394   0019EC  500F               	movf	___fladd@bexp^0,w,c
  5395   0019EE  C00E  F009         	movff	___fladd@aexp,??___fladd
  5396   0019F2  6A0A               	clrf	(??___fladd+1)^0,c
  5397   0019F4  5E09               	subwf	??___fladd^0,f,c
  5398   0019F6  0E00               	movlw	0
  5399   0019F8  5A0A               	subwfb	(??___fladd+1)^0,f,c
  5400   0019FA  BE0A               	btfsc	(??___fladd+1)^0,7,c
  5401   0019FC  EF09  F00D         	goto	u5301
  5402   001A00  500A               	movf	(??___fladd+1)^0,w,c
  5403   001A02  E109               	bnz	u5300
  5404   001A04  0E1A               	movlw	26
  5405   001A06  5C09               	subwf	??___fladd^0,w,c
  5406   001A08  A0D8               	btfss	status,0,c
  5407   001A0A  EF09  F00D         	goto	u5301
  5408   001A0E  EF0B  F00D         	goto	u5300
  5409   001A12                     u5301:
  5410   001A12  EF42  F00D         	goto	l651
  5411   001A16                     u5300:
  5412   001A16  5001               	movf	___fladd@b^0,w,c
  5413   001A18  1002               	iorwf	(___fladd@b+1)^0,w,c
  5414   001A1A  1003               	iorwf	(___fladd@b+2)^0,w,c
  5415   001A1C  1004               	iorwf	(___fladd@b+3)^0,w,c
  5416   001A1E  A4D8               	btfss	status,2,c
  5417   001A20  EF14  F00D         	goto	u5311
  5418   001A24  EF17  F00D         	goto	u5310
  5419   001A28                     u5311:
  5420   001A28  0E01               	movlw	1
  5421   001A2A  EF18  F00D         	goto	u5320
  5422   001A2E                     u5310:
  5423   001A2E  0E00               	movlw	0
  5424   001A30                     u5320:
  5425   001A30  6E10               	movwf	___fladd@grs^0,c
  5426   001A32  0E00               	movlw	0
  5427   001A34  6E01               	movwf	___fladd@b^0,c
  5428   001A36  0E00               	movlw	0
  5429   001A38  6E02               	movwf	(___fladd@b+1)^0,c
  5430   001A3A  0E00               	movlw	0
  5431   001A3C  6E03               	movwf	(___fladd@b+2)^0,c
  5432   001A3E  0E00               	movlw	0
  5433   001A40  6E04               	movwf	(___fladd@b+3)^0,c
  5434   001A42  C00E  F00F         	movff	___fladd@aexp,___fladd@bexp
  5435   001A46  EF4B  F00D         	goto	l650
  5436   001A4A                     l652:
  5437   001A4A  A010               	btfss	___fladd@grs^0,0,c
  5438   001A4C  EF2A  F00D         	goto	u5331
  5439   001A50  EF2C  F00D         	goto	u5330
  5440   001A54                     u5331:
  5441   001A54  EF32  F00D         	goto	l3987
  5442   001A58                     u5330:
  5443   001A58  90D8               	bcf	status,0,c
  5444   001A5A  3010               	rrcf	___fladd@grs^0,w,c
  5445   001A5C  0901               	iorlw	1
  5446   001A5E  6E10               	movwf	___fladd@grs^0,c
  5447   001A60  EF34  F00D         	goto	l3989
  5448   001A64                     l3987:
  5449   001A64  90D8               	bcf	status,0,c
  5450   001A66  3210               	rrcf	___fladd@grs^0,f,c
  5451   001A68                     l3989:
  5452   001A68  A001               	btfss	___fladd@b^0,0,c
  5453   001A6A  EF39  F00D         	goto	u5341
  5454   001A6E  EF3B  F00D         	goto	u5340
  5455   001A72                     u5341:
  5456   001A72  EF3C  F00D         	goto	l3993
  5457   001A76                     u5340:
  5458   001A76  8E10               	bsf	___fladd@grs^0,7,c
  5459   001A78                     l3993:
  5460   001A78  3404               	rlcf	(___fladd@b+3)^0,w,c
  5461   001A7A  3204               	rrcf	(___fladd@b+3)^0,f,c
  5462   001A7C  3203               	rrcf	(___fladd@b+2)^0,f,c
  5463   001A7E  3202               	rrcf	(___fladd@b+1)^0,f,c
  5464   001A80  3201               	rrcf	___fladd@b^0,f,c
  5465   001A82  2A0F               	incf	___fladd@bexp^0,f,c
  5466   001A84                     l651:
  5467   001A84  500E               	movf	___fladd@aexp^0,w,c
  5468   001A86  5C0F               	subwf	___fladd@bexp^0,w,c
  5469   001A88  A0D8               	btfss	status,0,c
  5470   001A8A  EF49  F00D         	goto	u5351
  5471   001A8E  EF4B  F00D         	goto	u5350
  5472   001A92                     u5351:
  5473   001A92  EF25  F00D         	goto	l652
  5474   001A96                     u5350:
  5475   001A96                     l650:
  5476   001A96  BC0D               	btfsc	___fladd@signs^0,6,c
  5477   001A98  EF50  F00D         	goto	u5361
  5478   001A9C  EF52  F00D         	goto	u5360
  5479   001AA0                     u5361:
  5480   001AA0  EF92  F00D         	goto	l4021
  5481   001AA4                     u5360:
  5482   001AA4  500F               	movf	___fladd@bexp^0,w,c
  5483   001AA6  A4D8               	btfss	status,2,c
  5484   001AA8  EF58  F00D         	goto	u5371
  5485   001AAC  EF5A  F00D         	goto	u5370
  5486   001AB0                     u5371:
  5487   001AB0  EF64  F00D         	goto	l4003
  5488   001AB4                     u5370:
  5489   001AB4  0E00               	movlw	0
  5490   001AB6  6E01               	movwf	?___fladd^0,c
  5491   001AB8  0E00               	movlw	0
  5492   001ABA  6E02               	movwf	(?___fladd+1)^0,c
  5493   001ABC  0E00               	movlw	0
  5494   001ABE  6E03               	movwf	(?___fladd+2)^0,c
  5495   001AC0  0E00               	movlw	0
  5496   001AC2  6E04               	movwf	(?___fladd+3)^0,c
  5497   001AC4  EFB1  F00E         	goto	l659
  5498   001AC8                     l4003:
  5499   001AC8  5005               	movf	___fladd@a^0,w,c
  5500   001ACA  2601               	addwf	___fladd@b^0,f,c
  5501   001ACC  5006               	movf	(___fladd@a+1)^0,w,c
  5502   001ACE  2202               	addwfc	(___fladd@b+1)^0,f,c
  5503   001AD0  5007               	movf	(___fladd@a+2)^0,w,c
  5504   001AD2  2203               	addwfc	(___fladd@b+2)^0,f,c
  5505   001AD4  5008               	movf	(___fladd@a+3)^0,w,c
  5506   001AD6  2204               	addwfc	(___fladd@b+3)^0,f,c
  5507   001AD8  A004               	btfss	(___fladd@b+3)^0,0,c
  5508   001ADA  EF71  F00D         	goto	u5381
  5509   001ADE  EF73  F00D         	goto	u5380
  5510   001AE2                     u5381:
  5511   001AE2  EF1F  F00E         	goto	l664
  5512   001AE6                     u5380:
  5513   001AE6  A010               	btfss	___fladd@grs^0,0,c
  5514   001AE8  EF78  F00D         	goto	u5391
  5515   001AEC  EF7A  F00D         	goto	u5390
  5516   001AF0                     u5391:
  5517   001AF0  EF80  F00D         	goto	l4011
  5518   001AF4                     u5390:
  5519   001AF4  90D8               	bcf	status,0,c
  5520   001AF6  3010               	rrcf	___fladd@grs^0,w,c
  5521   001AF8  0901               	iorlw	1
  5522   001AFA  6E10               	movwf	___fladd@grs^0,c
  5523   001AFC  EF82  F00D         	goto	l4013
  5524   001B00                     l4011:
  5525   001B00  90D8               	bcf	status,0,c
  5526   001B02  3210               	rrcf	___fladd@grs^0,f,c
  5527   001B04                     l4013:
  5528   001B04  A001               	btfss	___fladd@b^0,0,c
  5529   001B06  EF87  F00D         	goto	u5401
  5530   001B0A  EF89  F00D         	goto	u5400
  5531   001B0E                     u5401:
  5532   001B0E  EF8A  F00D         	goto	l4017
  5533   001B12                     u5400:
  5534   001B12  8E10               	bsf	___fladd@grs^0,7,c
  5535   001B14                     l4017:
  5536   001B14  3404               	rlcf	(___fladd@b+3)^0,w,c
  5537   001B16  3204               	rrcf	(___fladd@b+3)^0,f,c
  5538   001B18  3203               	rrcf	(___fladd@b+2)^0,f,c
  5539   001B1A  3202               	rrcf	(___fladd@b+1)^0,f,c
  5540   001B1C  3201               	rrcf	___fladd@b^0,f,c
  5541   001B1E  2A0F               	incf	___fladd@bexp^0,f,c
  5542   001B20  EF1F  F00E         	goto	l664
  5543   001B24                     l4021:
  5544   001B24  5005               	movf	___fladd@a^0,w,c
  5545   001B26  5C01               	subwf	___fladd@b^0,w,c
  5546   001B28  5006               	movf	(___fladd@a+1)^0,w,c
  5547   001B2A  5802               	subwfb	(___fladd@b+1)^0,w,c
  5548   001B2C  5007               	movf	(___fladd@a+2)^0,w,c
  5549   001B2E  5803               	subwfb	(___fladd@b+2)^0,w,c
  5550   001B30  5004               	movf	(___fladd@b+3)^0,w,c
  5551   001B32  0A80               	xorlw	128
  5552   001B34  6E09               	movwf	??___fladd^0,c
  5553   001B36  5008               	movf	(___fladd@a+3)^0,w,c
  5554   001B38  0A80               	xorlw	128
  5555   001B3A  5809               	subwfb	??___fladd^0,w,c
  5556   001B3C  B0D8               	btfsc	status,0,c
  5557   001B3E  EFA3  F00D         	goto	u5411
  5558   001B42  EFA5  F00D         	goto	u5410
  5559   001B46                     u5411:
  5560   001B46  EFD0  F00D         	goto	l4031
  5561   001B4A                     u5410:
  5562   001B4A  5001               	movf	___fladd@b^0,w,c
  5563   001B4C  5C05               	subwf	___fladd@a^0,w,c
  5564   001B4E  6E09               	movwf	??___fladd^0,c
  5565   001B50  5002               	movf	(___fladd@b+1)^0,w,c
  5566   001B52  5806               	subwfb	(___fladd@a+1)^0,w,c
  5567   001B54  6E0A               	movwf	(??___fladd+1)^0,c
  5568   001B56  5003               	movf	(___fladd@b+2)^0,w,c
  5569   001B58  5807               	subwfb	(___fladd@a+2)^0,w,c
  5570   001B5A  6E0B               	movwf	(??___fladd+2)^0,c
  5571   001B5C  5004               	movf	(___fladd@b+3)^0,w,c
  5572   001B5E  5808               	subwfb	(___fladd@a+3)^0,w,c
  5573   001B60  6E0C               	movwf	(??___fladd+3)^0,c
  5574   001B62  0EFF               	movlw	255
  5575   001B64  2409               	addwf	??___fladd^0,w,c
  5576   001B66  6E01               	movwf	___fladd@b^0,c
  5577   001B68  0EFF               	movlw	255
  5578   001B6A  200A               	addwfc	(??___fladd+1)^0,w,c
  5579   001B6C  6E02               	movwf	(___fladd@b+1)^0,c
  5580   001B6E  0EFF               	movlw	255
  5581   001B70  200B               	addwfc	(??___fladd+2)^0,w,c
  5582   001B72  6E03               	movwf	(___fladd@b+2)^0,c
  5583   001B74  0EFF               	movlw	255
  5584   001B76  200C               	addwfc	(??___fladd+3)^0,w,c
  5585   001B78  6E04               	movwf	(___fladd@b+3)^0,c
  5586   001B7A  0E80               	movlw	128
  5587   001B7C  1A0D               	xorwf	___fladd@signs^0,f,c
  5588   001B7E  6C10               	negf	___fladd@grs^0,c
  5589   001B80  5010               	movf	___fladd@grs^0,w,c
  5590   001B82  A4D8               	btfss	status,2,c
  5591   001B84  EFC6  F00D         	goto	u5421
  5592   001B88  EFC8  F00D         	goto	u5420
  5593   001B8C                     u5421:
  5594   001B8C  EFD8  F00D         	goto	l667
  5595   001B90                     u5420:
  5596   001B90  0E01               	movlw	1
  5597   001B92  2601               	addwf	___fladd@b^0,f,c
  5598   001B94  0E00               	movlw	0
  5599   001B96  2202               	addwfc	(___fladd@b+1)^0,f,c
  5600   001B98  2203               	addwfc	(___fladd@b+2)^0,f,c
  5601   001B9A  2204               	addwfc	(___fladd@b+3)^0,f,c
  5602   001B9C  EFD8  F00D         	goto	l667
  5603   001BA0                     l4031:
  5604   001BA0  5005               	movf	___fladd@a^0,w,c
  5605   001BA2  5E01               	subwf	___fladd@b^0,f,c
  5606   001BA4  5006               	movf	(___fladd@a+1)^0,w,c
  5607   001BA6  5A02               	subwfb	(___fladd@b+1)^0,f,c
  5608   001BA8  5007               	movf	(___fladd@a+2)^0,w,c
  5609   001BAA  5A03               	subwfb	(___fladd@b+2)^0,f,c
  5610   001BAC  5008               	movf	(___fladd@a+3)^0,w,c
  5611   001BAE  5A04               	subwfb	(___fladd@b+3)^0,f,c
  5612   001BB0                     l667:
  5613   001BB0  5001               	movf	___fladd@b^0,w,c
  5614   001BB2  1002               	iorwf	(___fladd@b+1)^0,w,c
  5615   001BB4  1003               	iorwf	(___fladd@b+2)^0,w,c
  5616   001BB6  1004               	iorwf	(___fladd@b+3)^0,w,c
  5617   001BB8  A4D8               	btfss	status,2,c
  5618   001BBA  EFE1  F00D         	goto	u5431
  5619   001BBE  EFE3  F00D         	goto	u5430
  5620   001BC2                     u5431:
  5621   001BC2  EF18  F00E         	goto	l4055
  5622   001BC6                     u5430:
  5623   001BC6  5010               	movf	___fladd@grs^0,w,c
  5624   001BC8  A4D8               	btfss	status,2,c
  5625   001BCA  EFE9  F00D         	goto	u5441
  5626   001BCE  EFEB  F00D         	goto	u5440
  5627   001BD2                     u5441:
  5628   001BD2  EF18  F00E         	goto	l4055
  5629   001BD6                     u5440:
  5630   001BD6  0E00               	movlw	0
  5631   001BD8  6E01               	movwf	?___fladd^0,c
  5632   001BDA  0E00               	movlw	0
  5633   001BDC  6E02               	movwf	(?___fladd+1)^0,c
  5634   001BDE  0E00               	movlw	0
  5635   001BE0  6E03               	movwf	(?___fladd+2)^0,c
  5636   001BE2  0E00               	movlw	0
  5637   001BE4  6E04               	movwf	(?___fladd+3)^0,c
  5638   001BE6  EFB1  F00E         	goto	l659
  5639   001BEA                     l4039:
  5640   001BEA  90D8               	bcf	status,0,c
  5641   001BEC  3601               	rlcf	___fladd@b^0,f,c
  5642   001BEE  3602               	rlcf	(___fladd@b+1)^0,f,c
  5643   001BF0  3603               	rlcf	(___fladd@b+2)^0,f,c
  5644   001BF2  3604               	rlcf	(___fladd@b+3)^0,f,c
  5645   001BF4  AE10               	btfss	___fladd@grs^0,7,c
  5646   001BF6  EFFF  F00D         	goto	u5451
  5647   001BFA  EF01  F00E         	goto	u5450
  5648   001BFE                     u5451:
  5649   001BFE  EF02  F00E         	goto	l4045
  5650   001C02                     u5450:
  5651   001C02  8001               	bsf	___fladd@b^0,0,c
  5652   001C04                     l4045:
  5653   001C04  A010               	btfss	___fladd@grs^0,0,c
  5654   001C06  EF07  F00E         	goto	u5461
  5655   001C0A  EF09  F00E         	goto	u5460
  5656   001C0E                     u5461:
  5657   001C0E  EF0D  F00E         	goto	l4049
  5658   001C12                     u5460:
  5659   001C12  80D8               	bsf	status,0,c
  5660   001C14  3610               	rlcf	___fladd@grs^0,f,c
  5661   001C16  EF0F  F00E         	goto	l4051
  5662   001C1A                     l4049:
  5663   001C1A  90D8               	bcf	status,0,c
  5664   001C1C  3610               	rlcf	___fladd@grs^0,f,c
  5665   001C1E                     l4051:
  5666   001C1E  500F               	movf	___fladd@bexp^0,w,c
  5667   001C20  B4D8               	btfsc	status,2,c
  5668   001C22  EF15  F00E         	goto	u5471
  5669   001C26  EF17  F00E         	goto	u5470
  5670   001C2A                     u5471:
  5671   001C2A  EF18  F00E         	goto	l4055
  5672   001C2E                     u5470:
  5673   001C2E  060F               	decf	___fladd@bexp^0,f,c
  5674   001C30                     l4055:
  5675   001C30  AE03               	btfss	(___fladd@b+2)^0,7,c
  5676   001C32  EF1D  F00E         	goto	u5481
  5677   001C36  EF1F  F00E         	goto	u5480
  5678   001C3A                     u5481:
  5679   001C3A  EFF5  F00D         	goto	l4039
  5680   001C3E                     u5480:
  5681   001C3E                     l664:
  5682   001C3E  6A0E               	clrf	___fladd@aexp^0,c
  5683   001C40  AE10               	btfss	___fladd@grs^0,7,c
  5684   001C42  EF25  F00E         	goto	u5491
  5685   001C46  EF27  F00E         	goto	u5490
  5686   001C4A                     u5491:
  5687   001C4A  EF3F  F00E         	goto	l676
  5688   001C4E                     u5490:
  5689   001C4E  C010  F009         	movff	___fladd@grs,??___fladd
  5690   001C52  0E7F               	movlw	127
  5691   001C54  1609               	andwf	??___fladd^0,f,c
  5692   001C56  B4D8               	btfsc	status,2,c
  5693   001C58  EF30  F00E         	goto	u5501
  5694   001C5C  EF32  F00E         	goto	u5500
  5695   001C60                     u5501:
  5696   001C60  EF36  F00E         	goto	l677
  5697   001C64                     u5500:
  5698   001C64                     l4059:
  5699   001C64  0E01               	movlw	1
  5700   001C66  6E0E               	movwf	___fladd@aexp^0,c
  5701   001C68  EF3F  F00E         	goto	l676
  5702   001C6C                     l677:
  5703   001C6C  A001               	btfss	___fladd@b^0,0,c
  5704   001C6E  EF3B  F00E         	goto	u5511
  5705   001C72  EF3D  F00E         	goto	u5510
  5706   001C76                     u5511:
  5707   001C76  EF3F  F00E         	goto	l676
  5708   001C7A                     u5510:
  5709   001C7A  EF32  F00E         	goto	l4059
  5710   001C7E                     l676:
  5711   001C7E  500E               	movf	___fladd@aexp^0,w,c
  5712   001C80  B4D8               	btfsc	status,2,c
  5713   001C82  EF45  F00E         	goto	u5521
  5714   001C86  EF47  F00E         	goto	u5520
  5715   001C8A                     u5521:
  5716   001C8A  EF72  F00E         	goto	l4071
  5717   001C8E                     u5520:
  5718   001C8E  0E01               	movlw	1
  5719   001C90  2601               	addwf	___fladd@b^0,f,c
  5720   001C92  0E00               	movlw	0
  5721   001C94  2202               	addwfc	(___fladd@b+1)^0,f,c
  5722   001C96  2203               	addwfc	(___fladd@b+2)^0,f,c
  5723   001C98  2204               	addwfc	(___fladd@b+3)^0,f,c
  5724   001C9A  A004               	btfss	(___fladd@b+3)^0,0,c
  5725   001C9C  EF52  F00E         	goto	u5531
  5726   001CA0  EF54  F00E         	goto	u5530
  5727   001CA4                     u5531:
  5728   001CA4  EF72  F00E         	goto	l4071
  5729   001CA8                     u5530:
  5730   001CA8  C001  F009         	movff	___fladd@b,??___fladd
  5731   001CAC  C002  F00A         	movff	___fladd@b+1,??___fladd+1
  5732   001CB0  C003  F00B         	movff	___fladd@b+2,??___fladd+2
  5733   001CB4  C004  F00C         	movff	___fladd@b+3,??___fladd+3
  5734   001CB8  340C               	rlcf	(??___fladd+3)^0,w,c
  5735   001CBA  320C               	rrcf	(??___fladd+3)^0,f,c
  5736   001CBC  320B               	rrcf	(??___fladd+2)^0,f,c
  5737   001CBE  320A               	rrcf	(??___fladd+1)^0,f,c
  5738   001CC0  3209               	rrcf	??___fladd^0,f,c
  5739   001CC2  C009  F001         	movff	??___fladd,___fladd@b
  5740   001CC6  C00A  F002         	movff	??___fladd+1,___fladd@b+1
  5741   001CCA  C00B  F003         	movff	??___fladd+2,___fladd@b+2
  5742   001CCE  C00C  F004         	movff	??___fladd+3,___fladd@b+3
  5743   001CD2  280F               	incf	___fladd@bexp^0,w,c
  5744   001CD4  B4D8               	btfsc	status,2,c
  5745   001CD6  EF6F  F00E         	goto	u5541
  5746   001CDA  EF71  F00E         	goto	u5540
  5747   001CDE                     u5541:
  5748   001CDE  EF72  F00E         	goto	l4071
  5749   001CE2                     u5540:
  5750   001CE2  2A0F               	incf	___fladd@bexp^0,f,c
  5751   001CE4                     l4071:
  5752   001CE4  280F               	incf	___fladd@bexp^0,w,c
  5753   001CE6  B4D8               	btfsc	status,2,c
  5754   001CE8  EF78  F00E         	goto	u5551
  5755   001CEC  EF7A  F00E         	goto	u5550
  5756   001CF0                     u5551:
  5757   001CF0  EF82  F00E         	goto	l4075
  5758   001CF4                     u5550:
  5759   001CF4  500F               	movf	___fladd@bexp^0,w,c
  5760   001CF6  A4D8               	btfss	status,2,c
  5761   001CF8  EF80  F00E         	goto	u5561
  5762   001CFC  EF82  F00E         	goto	u5560
  5763   001D00                     u5561:
  5764   001D00  EF93  F00E         	goto	l683
  5765   001D04                     u5560:
  5766   001D04                     l4075:
  5767   001D04  0E00               	movlw	0
  5768   001D06  6E01               	movwf	___fladd@b^0,c
  5769   001D08  0E00               	movlw	0
  5770   001D0A  6E02               	movwf	(___fladd@b+1)^0,c
  5771   001D0C  0E00               	movlw	0
  5772   001D0E  6E03               	movwf	(___fladd@b+2)^0,c
  5773   001D10  0E00               	movlw	0
  5774   001D12  6E04               	movwf	(___fladd@b+3)^0,c
  5775   001D14  500F               	movf	___fladd@bexp^0,w,c
  5776   001D16  A4D8               	btfss	status,2,c
  5777   001D18  EF90  F00E         	goto	u5571
  5778   001D1C  EF92  F00E         	goto	u5570
  5779   001D20                     u5571:
  5780   001D20  EF93  F00E         	goto	l683
  5781   001D24                     u5570:
  5782   001D24  6A0D               	clrf	___fladd@signs^0,c
  5783   001D26                     l683:
  5784   001D26  A00F               	btfss	___fladd@bexp^0,0,c
  5785   001D28  EF98  F00E         	goto	u5581
  5786   001D2C  EF9A  F00E         	goto	u5580
  5787   001D30                     u5581:
  5788   001D30  EF9D  F00E         	goto	l4081
  5789   001D34                     u5580:
  5790   001D34  8E03               	bsf	(___fladd@b+2)^0,7,c
  5791   001D36  EF9E  F00E         	goto	l4083
  5792   001D3A                     l4081:
  5793   001D3A  9E03               	bcf	(___fladd@b+2)^0,7,c
  5794   001D3C                     l4083:
  5795   001D3C  90D8               	bcf	status,0,c
  5796   001D3E  300F               	rrcf	___fladd@bexp^0,w,c
  5797   001D40  6E04               	movwf	(___fladd@b+3)^0,c
  5798   001D42  AE0D               	btfss	___fladd@signs^0,7,c
  5799   001D44  EFA6  F00E         	goto	u5591
  5800   001D48  EFA8  F00E         	goto	u5590
  5801   001D4C                     u5591:
  5802   001D4C  EFA9  F00E         	goto	l4089
  5803   001D50                     u5590:
  5804   001D50  8E04               	bsf	(___fladd@b+3)^0,7,c
  5805   001D52                     l4089:
  5806   001D52  C001  F001         	movff	___fladd@b,?___fladd
  5807   001D56  C002  F002         	movff	___fladd@b+1,?___fladd+1
  5808   001D5A  C003  F003         	movff	___fladd@b+2,?___fladd+2
  5809   001D5E  C004  F004         	movff	___fladd@b+3,?___fladd+3
  5810   001D62                     l659:
  5811   001D62  0012               	return		;funcret
  5812   001D64                     __end_of___fladd:
  5813                           	callstack 0
  5814                           
  5815 ;; *************** function ___flneg *****************
  5816 ;; Defined at:
  5817 ;;		line 15 in file "C:\Program Files\Microchip\xc8\v3.00\pic\sources\c99\common\flneg.c"
  5818 ;; Parameters:    Size  Location     Type
  5819 ;;  f1              4    0[COMRAM] unsigned char 
  5820 ;; Auto vars:     Size  Location     Type
  5821 ;;		None
  5822 ;; Return value:  Size  Location     Type
  5823 ;;                  4    0[COMRAM] unsigned char 
  5824 ;; Registers used:
  5825 ;;		wreg, status,2, status,0
  5826 ;; Tracked objects:
  5827 ;;		On entry : 0/0
  5828 ;;		On exit  : 0/0
  5829 ;;		Unchanged: 0/0
  5830 ;; Data sizes:     COMRAM   BANK0   BANK1   BANK2   BANK3   BANK4   BANK5   BANK6   BANK7
  5831 ;;      Params:         4       0       0       0       0       0       0       0       0
  5832 ;;      Locals:         0       0       0       0       0       0       0       0       0
  5833 ;;      Temps:          0       0       0       0       0       0       0       0       0
  5834 ;;      Totals:         4       0       0       0       0       0       0       0       0
  5835 ;;Total ram usage:        4 bytes
  5836 ;; Hardware stack levels used: 1
  5837 ;; Hardware stack levels required when called: 1
  5838 ;; This function calls:
  5839 ;;		Nothing
  5840 ;; This function is called by:
  5841 ;;		_efgtoa
  5842 ;; This function uses a non-reentrant model
  5843 ;;
  5844                           
  5845                           	psect	text14
  5846   0038AA                     __ptext14:
  5847                           	callstack 0
  5848   0038AA                     ___flneg:
  5849                           	callstack 25
  5850   0038AA  5001               	movf	___flneg@f1^0,w,c
  5851   0038AC  1002               	iorwf	(___flneg@f1+1)^0,w,c
  5852   0038AE  1003               	iorwf	(___flneg@f1+2)^0,w,c
  5853   0038B0  1004               	iorwf	(___flneg@f1+3)^0,w,c
  5854   0038B2  B4D8               	btfsc	status,2,c
  5855   0038B4  EF5E  F01C         	goto	u6231
  5856   0038B8  EF60  F01C         	goto	u6230
  5857   0038BC                     u6231:
  5858   0038BC  EF68  F01C         	goto	l4493
  5859   0038C0                     u6230:
  5860   0038C0  0E00               	movlw	0
  5861   0038C2  1A01               	xorwf	___flneg@f1^0,f,c
  5862   0038C4  0E00               	movlw	0
  5863   0038C6  1A02               	xorwf	(___flneg@f1+1)^0,f,c
  5864   0038C8  0E00               	movlw	0
  5865   0038CA  1A03               	xorwf	(___flneg@f1+2)^0,f,c
  5866   0038CC  0E80               	movlw	128
  5867   0038CE  1A04               	xorwf	(___flneg@f1+3)^0,f,c
  5868   0038D0                     l4493:
  5869   0038D0  C001  F001         	movff	___flneg@f1,?___flneg
  5870   0038D4  C002  F002         	movff	___flneg@f1+1,?___flneg+1
  5871   0038D8  C003  F003         	movff	___flneg@f1+2,?___flneg+2
  5872   0038DC  C004  F004         	movff	___flneg@f1+3,?___flneg+3
  5873   0038E0  0012               	return		;funcret
  5874   0038E2                     __end_of___flneg:
  5875                           	callstack 0
  5876                           
  5877 ;; *************** function ___flge *****************
  5878 ;; Defined at:
  5879 ;;		line 4 in file "C:\Program Files\Microchip\xc8\v3.00\pic\sources\c99\common\flge.c"
  5880 ;; Parameters:    Size  Location     Type
  5881 ;;  ff1             4   64[COMRAM] unsigned char 
  5882 ;;  ff2             4   68[COMRAM] unsigned char 
  5883 ;; Auto vars:     Size  Location     Type
  5884 ;;		None
  5885 ;; Return value:  Size  Location     Type
  5886 ;;		None               void
  5887 ;; Registers used:
  5888 ;;		wreg, status,2, status,0
  5889 ;; Tracked objects:
  5890 ;;		On entry : 0/0
  5891 ;;		On exit  : 0/0
  5892 ;;		Unchanged: 0/0
  5893 ;; Data sizes:     COMRAM   BANK0   BANK1   BANK2   BANK3   BANK4   BANK5   BANK6   BANK7
  5894 ;;      Params:         8       0       0       0       0       0       0       0       0
  5895 ;;      Locals:         0       0       0       0       0       0       0       0       0
  5896 ;;      Temps:          4       0       0       0       0       0       0       0       0
  5897 ;;      Totals:        12       0       0       0       0       0       0       0       0
  5898 ;;Total ram usage:       12 bytes
  5899 ;; Hardware stack levels used: 1
  5900 ;; Hardware stack levels required when called: 1
  5901 ;; This function calls:
  5902 ;;		Nothing
  5903 ;; This function is called by:
  5904 ;;		_main
  5905 ;;		_efgtoa
  5906 ;; This function uses a non-reentrant model
  5907 ;;
  5908                           
  5909                           	psect	text15
  5910   002E58                     __ptext15:
  5911                           	callstack 0
  5912   002E58                     ___flge:
  5913                           	callstack 25
  5914   002E58  0E00               	movlw	0
  5915   002E5A  1441               	andwf	___flge@ff1^0,w,c
  5916   002E5C  6E49               	movwf	??___flge^0,c
  5917   002E5E  0E00               	movlw	0
  5918   002E60  1442               	andwf	(___flge@ff1+1)^0,w,c
  5919   002E62  6E4A               	movwf	(??___flge+1)^0,c
  5920   002E64  0E80               	movlw	128
  5921   002E66  1443               	andwf	(___flge@ff1+2)^0,w,c
  5922   002E68  6E4B               	movwf	(??___flge+2)^0,c
  5923   002E6A  0E7F               	movlw	127
  5924   002E6C  1444               	andwf	(___flge@ff1+3)^0,w,c
  5925   002E6E  6E4C               	movwf	(??___flge+3)^0,c
  5926   002E70  5049               	movf	??___flge^0,w,c
  5927   002E72  104A               	iorwf	(??___flge+1)^0,w,c
  5928   002E74  104B               	iorwf	(??___flge+2)^0,w,c
  5929   002E76  104C               	iorwf	(??___flge+3)^0,w,c
  5930   002E78  A4D8               	btfss	status,2,c
  5931   002E7A  EF41  F017         	goto	u6181
  5932   002E7E  EF43  F017         	goto	u6180
  5933   002E82                     u6181:
  5934   002E82  EF4B  F017         	goto	l4471
  5935   002E86                     u6180:
  5936   002E86  0E00               	movlw	0
  5937   002E88  6E41               	movwf	___flge@ff1^0,c
  5938   002E8A  0E00               	movlw	0
  5939   002E8C  6E42               	movwf	(___flge@ff1+1)^0,c
  5940   002E8E  0E00               	movlw	0
  5941   002E90  6E43               	movwf	(___flge@ff1+2)^0,c
  5942   002E92  0E00               	movlw	0
  5943   002E94  6E44               	movwf	(___flge@ff1+3)^0,c
  5944   002E96                     l4471:
  5945   002E96  0E00               	movlw	0
  5946   002E98  1445               	andwf	___flge@ff2^0,w,c
  5947   002E9A  6E49               	movwf	??___flge^0,c
  5948   002E9C  0E00               	movlw	0
  5949   002E9E  1446               	andwf	(___flge@ff2+1)^0,w,c
  5950   002EA0  6E4A               	movwf	(??___flge+1)^0,c
  5951   002EA2  0E80               	movlw	128
  5952   002EA4  1447               	andwf	(___flge@ff2+2)^0,w,c
  5953   002EA6  6E4B               	movwf	(??___flge+2)^0,c
  5954   002EA8  0E7F               	movlw	127
  5955   002EAA  1448               	andwf	(___flge@ff2+3)^0,w,c
  5956   002EAC  6E4C               	movwf	(??___flge+3)^0,c
  5957   002EAE  5049               	movf	??___flge^0,w,c
  5958   002EB0  104A               	iorwf	(??___flge+1)^0,w,c
  5959   002EB2  104B               	iorwf	(??___flge+2)^0,w,c
  5960   002EB4  104C               	iorwf	(??___flge+3)^0,w,c
  5961   002EB6  A4D8               	btfss	status,2,c
  5962   002EB8  EF60  F017         	goto	u6191
  5963   002EBC  EF62  F017         	goto	u6190
  5964   002EC0                     u6191:
  5965   002EC0  EF6A  F017         	goto	l4475
  5966   002EC4                     u6190:
  5967   002EC4  0E00               	movlw	0
  5968   002EC6  6E45               	movwf	___flge@ff2^0,c
  5969   002EC8  0E00               	movlw	0
  5970   002ECA  6E46               	movwf	(___flge@ff2+1)^0,c
  5971   002ECC  0E00               	movlw	0
  5972   002ECE  6E47               	movwf	(___flge@ff2+2)^0,c
  5973   002ED0  0E00               	movlw	0
  5974   002ED2  6E48               	movwf	(___flge@ff2+3)^0,c
  5975   002ED4                     l4475:
  5976   002ED4  AE44               	btfss	(___flge@ff1+3)^0,7,c
  5977   002ED6  EF6F  F017         	goto	u6201
  5978   002EDA  EF71  F017         	goto	u6200
  5979   002EDE                     u6201:
  5980   002EDE  EF7A  F017         	goto	l4479
  5981   002EE2                     u6200:
  5982   002EE2  6C41               	negf	___flge@ff1^0,c
  5983   002EE4  1E42               	comf	(___flge@ff1+1)^0,f,c
  5984   002EE6  B0D8               	btfsc	status,0,c
  5985   002EE8  2A42               	incf	(___flge@ff1+1)^0,f,c
  5986   002EEA  1E43               	comf	(___flge@ff1+2)^0,f,c
  5987   002EEC  B0D8               	btfsc	status,0,c
  5988   002EEE  2A43               	incf	(___flge@ff1+2)^0,f,c
  5989   002EF0  0E80               	movlw	128
  5990   002EF2  5644               	subfwb	(___flge@ff1+3)^0,f,c
  5991   002EF4                     l4479:
  5992   002EF4  AE48               	btfss	(___flge@ff2+3)^0,7,c
  5993   002EF6  EF7F  F017         	goto	u6211
  5994   002EFA  EF81  F017         	goto	u6210
  5995   002EFE                     u6211:
  5996   002EFE  EF8A  F017         	goto	l387
  5997   002F02                     u6210:
  5998   002F02  6C45               	negf	___flge@ff2^0,c
  5999   002F04  1E46               	comf	(___flge@ff2+1)^0,f,c
  6000   002F06  B0D8               	btfsc	status,0,c
  6001   002F08  2A46               	incf	(___flge@ff2+1)^0,f,c
  6002   002F0A  1E47               	comf	(___flge@ff2+2)^0,f,c
  6003   002F0C  B0D8               	btfsc	status,0,c
  6004   002F0E  2A47               	incf	(___flge@ff2+2)^0,f,c
  6005   002F10  0E80               	movlw	128
  6006   002F12  5648               	subfwb	(___flge@ff2+3)^0,f,c
  6007   002F14                     l387:
  6008   002F14  0E00               	movlw	0
  6009   002F16  1A41               	xorwf	___flge@ff1^0,f,c
  6010   002F18  0E00               	movlw	0
  6011   002F1A  1A42               	xorwf	(___flge@ff1+1)^0,f,c
  6012   002F1C  0E00               	movlw	0
  6013   002F1E  1A43               	xorwf	(___flge@ff1+2)^0,f,c
  6014   002F20  0E80               	movlw	128
  6015   002F22  1A44               	xorwf	(___flge@ff1+3)^0,f,c
  6016   002F24  0E00               	movlw	0
  6017   002F26  1A45               	xorwf	___flge@ff2^0,f,c
  6018   002F28  0E00               	movlw	0
  6019   002F2A  1A46               	xorwf	(___flge@ff2+1)^0,f,c
  6020   002F2C  0E00               	movlw	0
  6021   002F2E  1A47               	xorwf	(___flge@ff2+2)^0,f,c
  6022   002F30  0E80               	movlw	128
  6023   002F32  1A48               	xorwf	(___flge@ff2+3)^0,f,c
  6024   002F34  5045               	movf	___flge@ff2^0,w,c
  6025   002F36  5C41               	subwf	___flge@ff1^0,w,c
  6026   002F38  5046               	movf	(___flge@ff2+1)^0,w,c
  6027   002F3A  5842               	subwfb	(___flge@ff1+1)^0,w,c
  6028   002F3C  5047               	movf	(___flge@ff2+2)^0,w,c
  6029   002F3E  5843               	subwfb	(___flge@ff1+2)^0,w,c
  6030   002F40  5048               	movf	(___flge@ff2+3)^0,w,c
  6031   002F42  5844               	subwfb	(___flge@ff1+3)^0,w,c
  6032   002F44  B0D8               	btfsc	status,0,c
  6033   002F46  EFA7  F017         	goto	u6221
  6034   002F4A  EFA9  F017         	goto	u6220
  6035   002F4E                     u6221:
  6036   002F4E  EFAC  F017         	goto	l4485
  6037   002F52                     u6220:
  6038   002F52  90D8               	bcf	status,0,c
  6039   002F54  EFAD  F017         	goto	l392
  6040   002F58                     l4485:
  6041   002F58  80D8               	bsf	status,0,c
  6042   002F5A                     l392:
  6043   002F5A  0012               	return		;funcret
  6044   002F5C                     __end_of___flge:
  6045                           	callstack 0
  6046                           
  6047 ;; *************** function ___fleq *****************
  6048 ;; Defined at:
  6049 ;;		line 4 in file "C:\Program Files\Microchip\xc8\v3.00\pic\sources\c99\common\fleq.c"
  6050 ;; Parameters:    Size  Location     Type
  6051 ;;  ff1             4    0[COMRAM] unsigned char 
  6052 ;;  ff2             4    4[COMRAM] unsigned char 
  6053 ;; Auto vars:     Size  Location     Type
  6054 ;;		None
  6055 ;; Return value:  Size  Location     Type
  6056 ;;		None               void
  6057 ;; Registers used:
  6058 ;;		wreg, status,2, status,0
  6059 ;; Tracked objects:
  6060 ;;		On entry : 0/0
  6061 ;;		On exit  : 0/0
  6062 ;;		Unchanged: 0/0
  6063 ;; Data sizes:     COMRAM   BANK0   BANK1   BANK2   BANK3   BANK4   BANK5   BANK6   BANK7
  6064 ;;      Params:         8       0       0       0       0       0       0       0       0
  6065 ;;      Locals:         0       0       0       0       0       0       0       0       0
  6066 ;;      Temps:          4       0       0       0       0       0       0       0       0
  6067 ;;      Totals:        12       0       0       0       0       0       0       0       0
  6068 ;;Total ram usage:       12 bytes
  6069 ;; Hardware stack levels used: 1
  6070 ;; Hardware stack levels required when called: 1
  6071 ;; This function calls:
  6072 ;;		Nothing
  6073 ;; This function is called by:
  6074 ;;		_efgtoa
  6075 ;; This function uses a non-reentrant model
  6076 ;;
  6077                           
  6078                           	psect	text16
  6079   0031CA                     __ptext16:
  6080                           	callstack 0
  6081   0031CA                     ___fleq:
  6082                           	callstack 25
  6083   0031CA  0E00               	movlw	0
  6084   0031CC  1401               	andwf	___fleq@ff1^0,w,c
  6085   0031CE  6E09               	movwf	??___fleq^0,c
  6086   0031D0  0E00               	movlw	0
  6087   0031D2  1402               	andwf	(___fleq@ff1+1)^0,w,c
  6088   0031D4  6E0A               	movwf	(??___fleq+1)^0,c
  6089   0031D6  0E80               	movlw	128
  6090   0031D8  1403               	andwf	(___fleq@ff1+2)^0,w,c
  6091   0031DA  6E0B               	movwf	(??___fleq+2)^0,c
  6092   0031DC  0E7F               	movlw	127
  6093   0031DE  1404               	andwf	(___fleq@ff1+3)^0,w,c
  6094   0031E0  6E0C               	movwf	(??___fleq+3)^0,c
  6095   0031E2  5009               	movf	??___fleq^0,w,c
  6096   0031E4  100A               	iorwf	(??___fleq+1)^0,w,c
  6097   0031E6  100B               	iorwf	(??___fleq+2)^0,w,c
  6098   0031E8  100C               	iorwf	(??___fleq+3)^0,w,c
  6099   0031EA  A4D8               	btfss	status,2,c
  6100   0031EC  EFFA  F018         	goto	u6151
  6101   0031F0  EFFC  F018         	goto	u6150
  6102   0031F4                     u6151:
  6103   0031F4  EF04  F019         	goto	l4455
  6104   0031F8                     u6150:
  6105   0031F8  0E00               	movlw	0
  6106   0031FA  6E01               	movwf	___fleq@ff1^0,c
  6107   0031FC  0E00               	movlw	0
  6108   0031FE  6E02               	movwf	(___fleq@ff1+1)^0,c
  6109   003200  0E00               	movlw	0
  6110   003202  6E03               	movwf	(___fleq@ff1+2)^0,c
  6111   003204  0E00               	movlw	0
  6112   003206  6E04               	movwf	(___fleq@ff1+3)^0,c
  6113   003208                     l4455:
  6114   003208  0E00               	movlw	0
  6115   00320A  1405               	andwf	___fleq@ff2^0,w,c
  6116   00320C  6E09               	movwf	??___fleq^0,c
  6117   00320E  0E00               	movlw	0
  6118   003210  1406               	andwf	(___fleq@ff2+1)^0,w,c
  6119   003212  6E0A               	movwf	(??___fleq+1)^0,c
  6120   003214  0E80               	movlw	128
  6121   003216  1407               	andwf	(___fleq@ff2+2)^0,w,c
  6122   003218  6E0B               	movwf	(??___fleq+2)^0,c
  6123   00321A  0E7F               	movlw	127
  6124   00321C  1408               	andwf	(___fleq@ff2+3)^0,w,c
  6125   00321E  6E0C               	movwf	(??___fleq+3)^0,c
  6126   003220  5009               	movf	??___fleq^0,w,c
  6127   003222  100A               	iorwf	(??___fleq+1)^0,w,c
  6128   003224  100B               	iorwf	(??___fleq+2)^0,w,c
  6129   003226  100C               	iorwf	(??___fleq+3)^0,w,c
  6130   003228  A4D8               	btfss	status,2,c
  6131   00322A  EF19  F019         	goto	u6161
  6132   00322E  EF1B  F019         	goto	u6160
  6133   003232                     u6161:
  6134   003232  EF23  F019         	goto	l4459
  6135   003236                     u6160:
  6136   003236  0E00               	movlw	0
  6137   003238  6E05               	movwf	___fleq@ff2^0,c
  6138   00323A  0E00               	movlw	0
  6139   00323C  6E06               	movwf	(___fleq@ff2+1)^0,c
  6140   00323E  0E00               	movlw	0
  6141   003240  6E07               	movwf	(___fleq@ff2+2)^0,c
  6142   003242  0E00               	movlw	0
  6143   003244  6E08               	movwf	(___fleq@ff2+3)^0,c
  6144   003246                     l4459:
  6145   003246  5005               	movf	___fleq@ff2^0,w,c
  6146   003248  1801               	xorwf	___fleq@ff1^0,w,c
  6147   00324A  E10F               	bnz	u6170
  6148   00324C  5006               	movf	(___fleq@ff2+1)^0,w,c
  6149   00324E  1802               	xorwf	(___fleq@ff1+1)^0,w,c
  6150   003250  E10C               	bnz	u6170
  6151   003252  5007               	movf	(___fleq@ff2+2)^0,w,c
  6152   003254  1803               	xorwf	(___fleq@ff1+2)^0,w,c
  6153   003256  E109               	bnz	u6170
  6154   003258  5008               	movf	(___fleq@ff2+3)^0,w,c
  6155   00325A  1804               	xorwf	(___fleq@ff1+3)^0,w,c
  6156   00325C  B4D8               	btfsc	status,2,c
  6157   00325E  EF33  F019         	goto	u6171
  6158   003262  EF35  F019         	goto	u6170
  6159   003266                     u6171:
  6160   003266  EF38  F019         	goto	l4463
  6161   00326A                     u6170:
  6162   00326A  90D8               	bcf	status,0,c
  6163   00326C  EF39  F019         	goto	l381
  6164   003270                     l4463:
  6165   003270  80D8               	bsf	status,0,c
  6166   003272                     l381:
  6167   003272  0012               	return		;funcret
  6168   003274                     __end_of___fleq:
  6169                           	callstack 0
  6170                           
  6171 ;; *************** function _dtoa *****************
  6172 ;; Defined at:
  6173 ;;		line 513 in file "C:\Program Files\Microchip\xc8\v3.00\pic\sources\c99\common\doprnt.c"
  6174 ;; Parameters:    Size  Location     Type
  6175 ;;  fp              1   22[COMRAM] PTR struct _IO_FILE
  6176 ;;		 -> sprintf@f(11), 
  6177 ;;  d               2   23[COMRAM] int 
  6178 ;; Auto vars:     Size  Location     Type
  6179 ;;  i               2   32[COMRAM] int 
  6180 ;;  w               2   29[COMRAM] int 
  6181 ;;  p               2   27[COMRAM] int 
  6182 ;;  s               1   31[COMRAM] unsigned char 
  6183 ;; Return value:  Size  Location     Type
  6184 ;;                  1    wreg      void 
  6185 ;; Registers used:
  6186 ;;		wreg, fsr1l, fsr1h, fsr2l, fsr2h, status,2, status,0, cstack
  6187 ;; Tracked objects:
  6188 ;;		On entry : 0/0
  6189 ;;		On exit  : 0/0
  6190 ;;		Unchanged: 0/0
  6191 ;; Data sizes:     COMRAM   BANK0   BANK1   BANK2   BANK3   BANK4   BANK5   BANK6   BANK7
  6192 ;;      Params:         3       0       0       0       0       0       0       0       0
  6193 ;;      Locals:         9       0       0       0       0       0       0       0       0
  6194 ;;      Temps:          0       0       0       0       0       0       0       0       0
  6195 ;;      Totals:        12       0       0       0       0       0       0       0       0
  6196 ;;Total ram usage:       12 bytes
  6197 ;; Hardware stack levels used: 1
  6198 ;; Hardware stack levels required when called: 5
  6199 ;; This function calls:
  6200 ;;		___awdiv
  6201 ;;		___awmod
  6202 ;;		_abs
  6203 ;;		_pad
  6204 ;; This function is called by:
  6205 ;;		_vfpfcnvrt
  6206 ;; This function uses a non-reentrant model
  6207 ;;
  6208                           
  6209                           	psect	text17
  6210   002BA0                     __ptext17:
  6211                           	callstack 0
  6212   002BA0                     _dtoa:
  6213                           	callstack 22
  6214   002BA0                     
  6215                           ;C:\Program Files\Microchip\xc8\v3.00\pic\sources\c99\common\doprnt.c: 513: static void 
      +                          dtoa(FILE *fp, vfpf_sint_t d);C:\Program Files\Microchip\xc8\v3.00\pic\sources\c99\commo
      +                          n\doprnt.c: 514: {;C:\Program Files\Microchip\xc8\v3.00\pic\sources\c99\common\doprnt.c:
      +                           515:  char s;;C:\Program Files\Microchip\xc8\v3.00\pic\sources\c99\common\doprnt.c: 516
      +                          :     int i, w;;C:\Program Files\Microchip\xc8\v3.00\pic\sources\c99\common\doprnt.c: 51
      +                          8:  int p;;C:\Program Files\Microchip\xc8\v3.00\pic\sources\c99\common\doprnt.c: 524:   
      +                            s = d < 0 ? 1 : 0;
  6216   002BA0  BE19               	btfsc	(dtoa@d+1)^0,7,c
  6217   002BA2  EFD5  F015         	goto	u6561
  6218   002BA6  EFD8  F015         	goto	u6560
  6219   002BAA                     u6561:
  6220   002BAA  0E01               	movlw	1
  6221   002BAC  EFD9  F015         	goto	u6570
  6222   002BB0                     u6560:
  6223   002BB0  0E00               	movlw	0
  6224   002BB2                     u6570:
  6225   002BB2  6E20               	movwf	dtoa@s^0,c
  6226                           
  6227                           ;C:\Program Files\Microchip\xc8\v3.00\pic\sources\c99\common\doprnt.c: 529:     if (!(pr
      +                          ec < 0)) {
  6228   002BB4  0100               	movlb	0	; () banked
  6229   002BB6  BFCC               	btfsc	(_prec+1)& (0+255),7,b
  6230   002BB8  EFE0  F015         	goto	u6581
  6231   002BBC  EFE2  F015         	goto	u6580
  6232   002BC0                     u6581:
  6233   002BC0  EFE3  F015         	goto	l4639
  6234   002BC4                     u6580:
  6235   002BC4                     
  6236                           ; BSR set to: 0
  6237                           ;C:\Program Files\Microchip\xc8\v3.00\pic\sources\c99\common\doprnt.c: 530:         flag
      +                          s &= ~(1 << 1);
  6238   002BC4  93CD               	bcf	_flags& (0+255),1,b
  6239   002BC6                     l4639:
  6240                           
  6241                           ; BSR set to: 0
  6242                           ;C:\Program Files\Microchip\xc8\v3.00\pic\sources\c99\common\doprnt.c: 533:     p = (0 <
      +                          = prec) ? prec : 1;
  6243   002BC6  BFCC               	btfsc	(_prec+1)& (0+255),7,b
  6244   002BC8  EFEA  F015         	goto	u6590
  6245   002BCC  EFE8  F015         	goto	u6591
  6246   002BD0                     u6591:
  6247   002BD0  EFF0  F015         	goto	l840
  6248   002BD4                     u6590:
  6249   002BD4                     
  6250                           ; BSR set to: 0
  6251   002BD4  0E00               	movlw	0
  6252   002BD6  6E1D               	movwf	(dtoa@p+1)^0,c
  6253   002BD8  0E01               	movlw	1
  6254   002BDA  6E1C               	movwf	dtoa@p^0,c
  6255   002BDC  EFF4  F015         	goto	l842
  6256   002BE0                     l840:
  6257                           
  6258                           ; BSR set to: 0
  6259   002BE0  C0CB  F01C         	movff	_prec,dtoa@p
  6260   002BE4  C0CC  F01D         	movff	_prec+1,dtoa@p+1
  6261   002BE8                     l842:
  6262                           
  6263                           ; BSR set to: 0
  6264                           ;C:\Program Files\Microchip\xc8\v3.00\pic\sources\c99\common\doprnt.c: 535:     w = widt
      +                          h;
  6265   002BE8  C0C9  F01E         	movff	_width,dtoa@w
  6266   002BEC  C0CA  F01F         	movff	_width+1,dtoa@w+1
  6267   002BF0                     
  6268                           ; BSR set to: 0
  6269                           ;C:\Program Files\Microchip\xc8\v3.00\pic\sources\c99\common\doprnt.c: 536:     if (s
  6270   002BF0  5020               	movf	dtoa@s^0,w,c
  6271   002BF2  B4D8               	btfsc	status,2,c
  6272   002BF4  EFFE  F015         	goto	u6601
  6273   002BF8  EF00  F016         	goto	u6600
  6274   002BFC                     u6601:
  6275   002BFC  EF17  F016         	goto	l843
  6276   002C00                     u6600:
  6277   002C00                     
  6278                           ; BSR set to: 0
  6279                           ;C:\Program Files\Microchip\xc8\v3.00\pic\sources\c99\common\doprnt.c: 540:     ) {;C:\P
      +                          rogram Files\Microchip\xc8\v3.00\pic\sources\c99\common\doprnt.c: 541:         --w;
  6280   002C00  061E               	decf	dtoa@w^0,f,c
  6281   002C02  A0D8               	btfss	status,0,c
  6282   002C04  061F               	decf	(dtoa@w+1)^0,f,c
  6283   002C06                     
  6284                           ; BSR set to: 0
  6285                           ;C:\Program Files\Microchip\xc8\v3.00\pic\sources\c99\common\doprnt.c: 542:   s = s ? '-
      +                          ' : '+';
  6286   002C06  5020               	movf	dtoa@s^0,w,c
  6287   002C08  A4D8               	btfss	status,2,c
  6288   002C0A  EF09  F016         	goto	u6611
  6289   002C0E  EF0B  F016         	goto	u6610
  6290   002C12                     u6611:
  6291   002C12  EF11  F016         	goto	l4651
  6292   002C16                     u6610:
  6293   002C16                     
  6294                           ; BSR set to: 0
  6295   002C16  0E00               	movlw	0
  6296   002C18  6E1B               	movwf	(_dtoa$1310+1)^0,c
  6297   002C1A  0E2B               	movlw	43
  6298   002C1C  6E1A               	movwf	_dtoa$1310^0,c
  6299   002C1E  EF15  F016         	goto	l4653
  6300   002C22                     l4651:
  6301                           
  6302                           ; BSR set to: 0
  6303   002C22  0E00               	movlw	0
  6304   002C24  6E1B               	movwf	(_dtoa$1310+1)^0,c
  6305   002C26  0E2D               	movlw	45
  6306   002C28  6E1A               	movwf	_dtoa$1310^0,c
  6307   002C2A                     l4653:
  6308                           
  6309                           ; BSR set to: 0
  6310   002C2A  C01A  F020         	movff	_dtoa$1310,dtoa@s
  6311   002C2E                     l843:
  6312                           
  6313                           ; BSR set to: 0
  6314                           ;C:\Program Files\Microchip\xc8\v3.00\pic\sources\c99\common\doprnt.c: 552:     i = size
      +                          of(dbuf) - 1;
  6315   002C2E  0E00               	movlw	0
  6316   002C30  6E22               	movwf	(dtoa@i+1)^0,c
  6317   002C32  0E4F               	movlw	79
  6318   002C34  6E21               	movwf	dtoa@i^0,c
  6319   002C36                     
  6320                           ; BSR set to: 0
  6321                           ;C:\Program Files\Microchip\xc8\v3.00\pic\sources\c99\common\doprnt.c: 553:     dbuf[i] 
      +                          = '\0';
  6322   002C36  0101               	movlb	1	; () banked
  6323   002C38  6B4F               	clrf	(_dbuf+79)& (0+255),b
  6324                           
  6325                           ;C:\Program Files\Microchip\xc8\v3.00\pic\sources\c99\common\doprnt.c: 554:     while (!
      +                          (i < 1) && (d != 0
  6326   002C3A  EF4F  F016         	goto	l4667
  6327   002C3E                     l4657:
  6328                           
  6329                           ;C:\Program Files\Microchip\xc8\v3.00\pic\sources\c99\common\doprnt.c: 563:     )) {;C:\
      +                          Program Files\Microchip\xc8\v3.00\pic\sources\c99\common\doprnt.c: 564:         --i;
  6330   002C3E  0621               	decf	dtoa@i^0,f,c
  6331   002C40  A0D8               	btfss	status,0,c
  6332   002C42  0622               	decf	(dtoa@i+1)^0,f,c
  6333   002C44                     
  6334                           ;C:\Program Files\Microchip\xc8\v3.00\pic\sources\c99\common\doprnt.c: 565:         dbuf
      +                          [i] = (char)((int)'0' + abs(d % 10));
  6335   002C44  0E00               	movlw	low _dbuf
  6336   002C46  2421               	addwf	dtoa@i^0,w,c
  6337   002C48  6ED9               	movwf	fsr2l,c
  6338   002C4A  0E01               	movlw	high _dbuf
  6339   002C4C  2022               	addwfc	(dtoa@i+1)^0,w,c
  6340   002C4E  6EDA               	movwf	fsr2h,c
  6341   002C50  C018  F001         	movff	dtoa@d,___awmod@dividend
  6342   002C54  C019  F002         	movff	dtoa@d+1,___awmod@dividend+1
  6343   002C58  0E00               	movlw	0
  6344   002C5A  6E04               	movwf	(___awmod@divisor+1)^0,c
  6345   002C5C  0E0A               	movlw	10
  6346   002C5E  6E03               	movwf	___awmod@divisor^0,c
  6347   002C60  EC8E  F018         	call	___awmod	;wreg free
  6348   002C64  C001  F007         	movff	?___awmod,abs@a
  6349   002C68  C002  F008         	movff	?___awmod+1,abs@a+1
  6350   002C6C  EC71  F01C         	call	_abs	;wreg free
  6351   002C70  5007               	movf	?_abs^0,w,c
  6352   002C72  0F30               	addlw	48
  6353   002C74  6EDF               	movwf	indf2,c
  6354   002C76                     
  6355                           ;C:\Program Files\Microchip\xc8\v3.00\pic\sources\c99\common\doprnt.c: 567:         --p;
  6356   002C76  061C               	decf	dtoa@p^0,f,c
  6357   002C78  A0D8               	btfss	status,0,c
  6358   002C7A  061D               	decf	(dtoa@p+1)^0,f,c
  6359   002C7C                     
  6360                           ;C:\Program Files\Microchip\xc8\v3.00\pic\sources\c99\common\doprnt.c: 571:         --w;
  6361   002C7C  061E               	decf	dtoa@w^0,f,c
  6362   002C7E  A0D8               	btfss	status,0,c
  6363   002C80  061F               	decf	(dtoa@w+1)^0,f,c
  6364   002C82                     
  6365                           ;C:\Program Files\Microchip\xc8\v3.00\pic\sources\c99\common\doprnt.c: 572:         d = 
      +                          d / 10;
  6366   002C82  C018  F001         	movff	dtoa@d,___awdiv@dividend
  6367   002C86  C019  F002         	movff	dtoa@d+1,___awdiv@dividend+1
  6368   002C8A  0E00               	movlw	0
  6369   002C8C  6E04               	movwf	(___awdiv@divisor+1)^0,c
  6370   002C8E  0E0A               	movlw	10
  6371   002C90  6E03               	movwf	___awdiv@divisor^0,c
  6372   002C92  EC2D  F018         	call	___awdiv	;wreg free
  6373   002C96  C001  F018         	movff	?___awdiv,dtoa@d
  6374   002C9A  C002  F019         	movff	?___awdiv+1,dtoa@d+1
  6375   002C9E                     l4667:
  6376                           
  6377                           ;C:\Program Files\Microchip\xc8\v3.00\pic\sources\c99\common\doprnt.c: 554:     while (!
      +                          (i < 1) && (d != 0
  6378   002C9E  BE22               	btfsc	(dtoa@i+1)^0,7,c
  6379   002CA0  EF5A  F016         	goto	u6621
  6380   002CA4  5022               	movf	(dtoa@i+1)^0,w,c
  6381   002CA6  E108               	bnz	u6620
  6382   002CA8  0421               	decf	dtoa@i^0,w,c
  6383   002CAA  A0D8               	btfss	status,0,c
  6384   002CAC  EF5A  F016         	goto	u6621
  6385   002CB0  EF5C  F016         	goto	u6620
  6386   002CB4                     u6621:
  6387   002CB4  EF87  F016         	goto	l4677
  6388   002CB8                     u6620:
  6389   002CB8  5018               	movf	dtoa@d^0,w,c
  6390   002CBA  1019               	iorwf	(dtoa@d+1)^0,w,c
  6391   002CBC  A4D8               	btfss	status,2,c
  6392   002CBE  EF63  F016         	goto	u6631
  6393   002CC2  EF65  F016         	goto	u6630
  6394   002CC6                     u6631:
  6395   002CC6  EF1F  F016         	goto	l4657
  6396   002CCA                     u6630:
  6397   002CCA  BE1D               	btfsc	(dtoa@p+1)^0,7,c
  6398   002CCC  EF72  F016         	goto	u6640
  6399   002CD0  501D               	movf	(dtoa@p+1)^0,w,c
  6400   002CD2  E106               	bnz	u6641
  6401   002CD4  041C               	decf	dtoa@p^0,w,c
  6402   002CD6  B0D8               	btfsc	status,0,c
  6403   002CD8  EF70  F016         	goto	u6641
  6404   002CDC  EF72  F016         	goto	u6640
  6405   002CE0                     u6641:
  6406   002CE0  EF1F  F016         	goto	l4657
  6407   002CE4                     u6640:
  6408   002CE4  BE1F               	btfsc	(dtoa@w+1)^0,7,c
  6409   002CE6  EF7D  F016         	goto	u6651
  6410   002CEA  501F               	movf	(dtoa@w+1)^0,w,c
  6411   002CEC  E108               	bnz	u6650
  6412   002CEE  041E               	decf	dtoa@w^0,w,c
  6413   002CF0  A0D8               	btfss	status,0,c
  6414   002CF2  EF7D  F016         	goto	u6651
  6415   002CF6  EF7F  F016         	goto	u6650
  6416   002CFA                     u6651:
  6417   002CFA  EF87  F016         	goto	l4677
  6418   002CFE                     u6650:
  6419   002CFE  0100               	movlb	0	; () banked
  6420   002D00  B3CD               	btfsc	_flags& (0+255),1,b
  6421   002D02  EF85  F016         	goto	u6661
  6422   002D06  EF87  F016         	goto	u6660
  6423   002D0A                     u6661:
  6424   002D0A  EF1F  F016         	goto	l4657
  6425   002D0E                     u6660:
  6426   002D0E                     l4677:
  6427                           
  6428                           ;C:\Program Files\Microchip\xc8\v3.00\pic\sources\c99\common\doprnt.c: 576:     if (s !=
      +                           0) {
  6429   002D0E  5020               	movf	dtoa@s^0,w,c
  6430   002D10  B4D8               	btfsc	status,2,c
  6431   002D12  EF8D  F016         	goto	u6671
  6432   002D16  EF8F  F016         	goto	u6670
  6433   002D1A                     u6671:
  6434   002D1A  EF9A  F016         	goto	l4683
  6435   002D1E                     u6670:
  6436   002D1E                     
  6437                           ;C:\Program Files\Microchip\xc8\v3.00\pic\sources\c99\common\doprnt.c: 577:         --i;
  6438   002D1E  0621               	decf	dtoa@i^0,f,c
  6439   002D20  A0D8               	btfss	status,0,c
  6440   002D22  0622               	decf	(dtoa@i+1)^0,f,c
  6441   002D24                     
  6442                           ;C:\Program Files\Microchip\xc8\v3.00\pic\sources\c99\common\doprnt.c: 578:         dbuf
      +                          [i] = s;
  6443   002D24  0E00               	movlw	low _dbuf
  6444   002D26  2421               	addwf	dtoa@i^0,w,c
  6445   002D28  6ED9               	movwf	fsr2l,c
  6446   002D2A  0E01               	movlw	high _dbuf
  6447   002D2C  2022               	addwfc	(dtoa@i+1)^0,w,c
  6448   002D2E  6EDA               	movwf	fsr2h,c
  6449   002D30  C020  FFDF         	movff	dtoa@s,indf2
  6450   002D34                     l4683:
  6451                           
  6452                           ;C:\Program Files\Microchip\xc8\v3.00\pic\sources\c99\common\doprnt.c: 582:     return (
      +                          void) pad(fp, &dbuf[i], w);
  6453   002D34  C017  F00F         	movff	dtoa@fp,pad@fp
  6454   002D38  0E00               	movlw	low _dbuf
  6455   002D3A  2421               	addwf	dtoa@i^0,w,c
  6456   002D3C  6E10               	movwf	pad@buf^0,c
  6457   002D3E  0E01               	movlw	high _dbuf
  6458   002D40  2022               	addwfc	(dtoa@i+1)^0,w,c
  6459   002D42  6E11               	movwf	(pad@buf+1)^0,c
  6460   002D44  C01E  F012         	movff	dtoa@w,pad@p
  6461   002D48  C01F  F013         	movff	dtoa@w+1,pad@p+1
  6462   002D4C  ECE1  F019         	call	_pad	;wreg free
  6463   002D50  0012               	return		;funcret
  6464   002D52                     __end_of_dtoa:
  6465                           	callstack 0
  6466                           
  6467 ;; *************** function _pad *****************
  6468 ;; Defined at:
  6469 ;;		line 193 in file "C:\Program Files\Microchip\xc8\v3.00\pic\sources\c99\common\doprnt.c"
  6470 ;; Parameters:    Size  Location     Type
  6471 ;;  fp              1   14[COMRAM] PTR struct _IO_FILE
  6472 ;;		 -> sprintf@f(11), 
  6473 ;;  buf             2   15[COMRAM] PTR unsigned char 
  6474 ;;		 -> dbuf(80), 
  6475 ;;  p               2   17[COMRAM] int 
  6476 ;; Auto vars:     Size  Location     Type
  6477 ;;  i               2   20[COMRAM] int 
  6478 ;; Return value:  Size  Location     Type
  6479 ;;                  1    wreg      void 
  6480 ;; Registers used:
  6481 ;;		wreg, fsr1l, fsr1h, fsr2l, fsr2h, status,2, status,0, cstack
  6482 ;; Tracked objects:
  6483 ;;		On entry : 0/0
  6484 ;;		On exit  : 0/0
  6485 ;;		Unchanged: 0/0
  6486 ;; Data sizes:     COMRAM   BANK0   BANK1   BANK2   BANK3   BANK4   BANK5   BANK6   BANK7
  6487 ;;      Params:         5       0       0       0       0       0       0       0       0
  6488 ;;      Locals:         2       0       0       0       0       0       0       0       0
  6489 ;;      Temps:          1       0       0       0       0       0       0       0       0
  6490 ;;      Totals:         8       0       0       0       0       0       0       0       0
  6491 ;;Total ram usage:        8 bytes
  6492 ;; Hardware stack levels used: 1
  6493 ;; Hardware stack levels required when called: 4
  6494 ;; This function calls:
  6495 ;;		_fputc
  6496 ;;		_fputs
  6497 ;; This function is called by:
  6498 ;;		_dtoa
  6499 ;;		_efgtoa
  6500 ;; This function uses a non-reentrant model
  6501 ;;
  6502                           
  6503                           	psect	text18
  6504   0033C2                     __ptext18:
  6505                           	callstack 0
  6506   0033C2                     _pad:
  6507                           	callstack 22
  6508   0033C2                     
  6509                           ;C:\Program Files\Microchip\xc8\v3.00\pic\sources\c99\common\doprnt.c: 193: static void 
      +                          pad(FILE *fp, char *buf, int p);C:\Program Files\Microchip\xc8\v3.00\pic\sources\c99\com
      +                          mon\doprnt.c: 194: {;C:\Program Files\Microchip\xc8\v3.00\pic\sources\c99\common\doprnt.
      +                          c: 195:     int i;;C:\Program Files\Microchip\xc8\v3.00\pic\sources\c99\common\doprnt.c:
      +                           199:     if (flags & (1 << 0)) {
  6510   0033C2  0100               	movlb	0	; () banked
  6511   0033C4  A1CD               	btfss	_flags& (0+255),0,b
  6512   0033C6  EFE7  F019         	goto	u6311
  6513   0033CA  EFE9  F019         	goto	u6310
  6514   0033CE                     u6311:
  6515   0033CE  EFF1  F019         	goto	l4545
  6516   0033D2                     u6310:
  6517   0033D2                     
  6518                           ; BSR set to: 0
  6519                           ;C:\Program Files\Microchip\xc8\v3.00\pic\sources\c99\common\doprnt.c: 200:         fput
      +                          s((const char *)buf, fp);
  6520   0033D2  C010  F009         	movff	pad@buf,fputs@s
  6521   0033D6  C011  F00A         	movff	pad@buf+1,fputs@s+1
  6522   0033DA  C00F  F00B         	movff	pad@fp,fputs@fp
  6523   0033DE  ECDD  F01B         	call	_fputs	;wreg free
  6524   0033E2                     l4545:
  6525                           
  6526                           ;C:\Program Files\Microchip\xc8\v3.00\pic\sources\c99\common\doprnt.c: 205:  if (p < 0) 
      +                          {
  6527   0033E2  BE13               	btfsc	(pad@p+1)^0,7,c
  6528   0033E4  EFF8  F019         	goto	u6320
  6529   0033E8  EFF6  F019         	goto	u6321
  6530   0033EC                     u6321:
  6531   0033EC  EFFC  F019         	goto	l830
  6532   0033F0                     u6320:
  6533   0033F0                     
  6534                           ;C:\Program Files\Microchip\xc8\v3.00\pic\sources\c99\common\doprnt.c: 206:   p = 0;
  6535   0033F0  0E00               	movlw	0
  6536   0033F2  6E13               	movwf	(pad@p+1)^0,c
  6537   0033F4  0E00               	movlw	0
  6538   0033F6  6E12               	movwf	pad@p^0,c
  6539   0033F8                     l830:
  6540                           
  6541                           ;C:\Program Files\Microchip\xc8\v3.00\pic\sources\c99\common\doprnt.c: 208:     i = 0;
  6542   0033F8  0E00               	movlw	0
  6543   0033FA  6E16               	movwf	(pad@i+1)^0,c
  6544   0033FC  0E00               	movlw	0
  6545   0033FE  6E15               	movwf	pad@i^0,c
  6546                           
  6547                           ;C:\Program Files\Microchip\xc8\v3.00\pic\sources\c99\common\doprnt.c: 209:     while (i
      +                           < p) {
  6548   003400  EF0C  F01A         	goto	l4553
  6549   003404                     l4549:
  6550                           
  6551                           ;C:\Program Files\Microchip\xc8\v3.00\pic\sources\c99\common\doprnt.c: 210:         fput
      +                          c(' ', fp);
  6552   003404  0E00               	movlw	0
  6553   003406  6E02               	movwf	(fputc@c+1)^0,c
  6554   003408  0E20               	movlw	32
  6555   00340A  6E01               	movwf	fputc@c^0,c
  6556   00340C  C00F  F003         	movff	pad@fp,fputc@fp
  6557   003410  EC3A  F019         	call	_fputc	;wreg free
  6558   003414                     
  6559                           ;C:\Program Files\Microchip\xc8\v3.00\pic\sources\c99\common\doprnt.c: 211:         ++i;
  6560   003414  4A15               	infsnz	pad@i^0,f,c
  6561   003416  2A16               	incf	(pad@i+1)^0,f,c
  6562   003418                     l4553:
  6563                           
  6564                           ;C:\Program Files\Microchip\xc8\v3.00\pic\sources\c99\common\doprnt.c: 209:     while (i
      +                           < p) {
  6565   003418  5012               	movf	pad@p^0,w,c
  6566   00341A  5C15               	subwf	pad@i^0,w,c
  6567   00341C  5016               	movf	(pad@i+1)^0,w,c
  6568   00341E  0A80               	xorlw	128
  6569   003420  6E14               	movwf	??_pad^0,c
  6570   003422  5013               	movf	(pad@p+1)^0,w,c
  6571   003424  0A80               	xorlw	128
  6572   003426  5814               	subwfb	??_pad^0,w,c
  6573   003428  A0D8               	btfss	status,0,c
  6574   00342A  EF19  F01A         	goto	u6331
  6575   00342E  EF1B  F01A         	goto	u6330
  6576   003432                     u6331:
  6577   003432  EF02  F01A         	goto	l4549
  6578   003436                     u6330:
  6579   003436                     
  6580                           ;C:\Program Files\Microchip\xc8\v3.00\pic\sources\c99\common\doprnt.c: 216:     if (!(fl
      +                          ags & (1 << 0))) {
  6581   003436  0100               	movlb	0	; () banked
  6582   003438  B1CD               	btfsc	_flags& (0+255),0,b
  6583   00343A  EF21  F01A         	goto	u6341
  6584   00343E  EF23  F01A         	goto	u6340
  6585   003442                     u6341:
  6586   003442  EF2B  F01A         	goto	l835
  6587   003446                     u6340:
  6588   003446                     
  6589                           ; BSR set to: 0
  6590                           ;C:\Program Files\Microchip\xc8\v3.00\pic\sources\c99\common\doprnt.c: 218:         fput
      +                          s((const char *)buf, fp);
  6591   003446  C010  F009         	movff	pad@buf,fputs@s
  6592   00344A  C011  F00A         	movff	pad@buf+1,fputs@s+1
  6593   00344E  C00F  F00B         	movff	pad@fp,fputs@fp
  6594   003452  ECDD  F01B         	call	_fputs	;wreg free
  6595   003456                     l835:
  6596   003456  0012               	return		;funcret
  6597   003458                     __end_of_pad:
  6598                           	callstack 0
  6599                           
  6600 ;; *************** function _fputs *****************
  6601 ;; Defined at:
  6602 ;;		line 8 in file "C:\Program Files\Microchip\xc8\v3.00\pic\sources\c99\common\nf_fputs.c"
  6603 ;; Parameters:    Size  Location     Type
  6604 ;;  s               2    8[COMRAM] PTR const unsigned char 
  6605 ;;		 -> dbuf(80), 
  6606 ;;  fp              1   10[COMRAM] PTR struct _IO_FILE
  6607 ;;		 -> sprintf@f(11), 
  6608 ;; Auto vars:     Size  Location     Type
  6609 ;;  i               2   12[COMRAM] int 
  6610 ;;  c               1   11[COMRAM] unsigned char 
  6611 ;; Return value:  Size  Location     Type
  6612 ;;                  2    8[COMRAM] int 
  6613 ;; Registers used:
  6614 ;;		wreg, fsr1l, fsr1h, fsr2l, fsr2h, status,2, status,0, cstack
  6615 ;; Tracked objects:
  6616 ;;		On entry : 0/0
  6617 ;;		On exit  : 0/0
  6618 ;;		Unchanged: 0/0
  6619 ;; Data sizes:     COMRAM   BANK0   BANK1   BANK2   BANK3   BANK4   BANK5   BANK6   BANK7
  6620 ;;      Params:         3       0       0       0       0       0       0       0       0
  6621 ;;      Locals:         3       0       0       0       0       0       0       0       0
  6622 ;;      Temps:          0       0       0       0       0       0       0       0       0
  6623 ;;      Totals:         6       0       0       0       0       0       0       0       0
  6624 ;;Total ram usage:        6 bytes
  6625 ;; Hardware stack levels used: 1
  6626 ;; Hardware stack levels required when called: 3
  6627 ;; This function calls:
  6628 ;;		_fputc
  6629 ;; This function is called by:
  6630 ;;		_pad
  6631 ;; This function uses a non-reentrant model
  6632 ;;
  6633                           
  6634                           	psect	text19
  6635   0037BA                     __ptext19:
  6636                           	callstack 0
  6637   0037BA                     _fputs:
  6638                           	callstack 22
  6639   0037BA  0E00               	movlw	0
  6640   0037BC  6E0E               	movwf	(fputs@i+1)^0,c
  6641   0037BE  0E00               	movlw	0
  6642   0037C0  6E0D               	movwf	fputs@i^0,c
  6643   0037C2  EFEC  F01B         	goto	l4099
  6644   0037C6                     l4095:
  6645   0037C6  C00C  F001         	movff	fputs@c,fputc@c
  6646   0037CA  6A02               	clrf	(fputc@c+1)^0,c
  6647   0037CC  C00B  F003         	movff	fputs@fp,fputc@fp
  6648   0037D0  EC3A  F019         	call	_fputc	;wreg free
  6649   0037D4  4A0D               	infsnz	fputs@i^0,f,c
  6650   0037D6  2A0E               	incf	(fputs@i+1)^0,f,c
  6651   0037D8                     l4099:
  6652   0037D8  500D               	movf	fputs@i^0,w,c
  6653   0037DA  2409               	addwf	fputs@s^0,w,c
  6654   0037DC  6ED9               	movwf	fsr2l,c
  6655   0037DE  500E               	movf	(fputs@i+1)^0,w,c
  6656   0037E0  200A               	addwfc	(fputs@s+1)^0,w,c
  6657   0037E2  6EDA               	movwf	fsr2h,c
  6658   0037E4  50DF               	movf	indf2,w,c
  6659   0037E6  6E0C               	movwf	fputs@c^0,c
  6660   0037E8  500C               	movf	fputs@c^0,w,c
  6661   0037EA  A4D8               	btfss	status,2,c
  6662   0037EC  EFFA  F01B         	goto	u5601
  6663   0037F0  EFFC  F01B         	goto	u5600
  6664   0037F4                     u5601:
  6665   0037F4  EFE3  F01B         	goto	l4095
  6666   0037F8                     u5600:
  6667   0037F8  0012               	return		;funcret
  6668   0037FA                     __end_of_fputs:
  6669                           	callstack 0
  6670                           
  6671 ;; *************** function _fputc *****************
  6672 ;; Defined at:
  6673 ;;		line 8 in file "C:\Program Files\Microchip\xc8\v3.00\pic\sources\c99\common\nf_fputc.c"
  6674 ;; Parameters:    Size  Location     Type
  6675 ;;  c               2    0[COMRAM] int 
  6676 ;;  fp              1    2[COMRAM] PTR struct _IO_FILE
  6677 ;;		 -> sprintf@f(11), 
  6678 ;; Auto vars:     Size  Location     Type
  6679 ;;		None
  6680 ;; Return value:  Size  Location     Type
  6681 ;;                  2    0[COMRAM] int 
  6682 ;; Registers used:
  6683 ;;		wreg, fsr1l, fsr1h, fsr2l, fsr2h, status,2, status,0, cstack
  6684 ;; Tracked objects:
  6685 ;;		On entry : 0/0
  6686 ;;		On exit  : 0/0
  6687 ;;		Unchanged: 0/0
  6688 ;; Data sizes:     COMRAM   BANK0   BANK1   BANK2   BANK3   BANK4   BANK5   BANK6   BANK7
  6689 ;;      Params:         3       0       0       0       0       0       0       0       0
  6690 ;;      Locals:         0       0       0       0       0       0       0       0       0
  6691 ;;      Temps:          5       0       0       0       0       0       0       0       0
  6692 ;;      Totals:         8       0       0       0       0       0       0       0       0
  6693 ;;Total ram usage:        8 bytes
  6694 ;; Hardware stack levels used: 1
  6695 ;; Hardware stack levels required when called: 2
  6696 ;; This function calls:
  6697 ;;		_putch
  6698 ;; This function is called by:
  6699 ;;		_pad
  6700 ;;		_vfpfcnvrt
  6701 ;;		_fputs
  6702 ;; This function uses a non-reentrant model
  6703 ;;
  6704                           
  6705                           	psect	text20
  6706   003274                     __ptext20:
  6707                           	callstack 0
  6708   003274                     _fputc:
  6709                           	callstack 25
  6710   003274  5003               	movf	fputc@fp^0,w,c
  6711   003276  B4D8               	btfsc	status,2,c
  6712   003278  EF40  F019         	goto	u5171
  6713   00327C  EF42  F019         	goto	u5170
  6714   003280                     u5171:
  6715   003280  EF4A  F019         	goto	l3889
  6716   003284                     u5170:
  6717   003284  5003               	movf	fputc@fp^0,w,c
  6718   003286  A4D8               	btfss	status,2,c
  6719   003288  EF48  F019         	goto	u5181
  6720   00328C  EF4A  F019         	goto	u5180
  6721   003290                     u5181:
  6722   003290  EF4F  F019         	goto	l3891
  6723   003294                     u5180:
  6724   003294                     l3889:
  6725   003294  5001               	movf	fputc@c^0,w,c
  6726   003296  ECBA  F01C         	call	_putch
  6727   00329A  EF8E  F019         	goto	l1016
  6728   00329E                     l3891:
  6729   00329E  5003               	movf	fputc@fp^0,w,c
  6730   0032A0  6ED9               	movwf	fsr2l,c
  6731   0032A2  6ADA               	clrf	fsr2h,c
  6732   0032A4  0E09               	movlw	9
  6733   0032A6  26D9               	addwf	fsr2l,f,c
  6734   0032A8  50DE               	movf	postinc2,w,c
  6735   0032AA  10DE               	iorwf	postinc2,w,c
  6736   0032AC  B4D8               	btfsc	status,2,c
  6737   0032AE  EF5B  F019         	goto	u5191
  6738   0032B2  EF5D  F019         	goto	u5190
  6739   0032B6                     u5191:
  6740   0032B6  EF76  F019         	goto	l3895
  6741   0032BA                     u5190:
  6742   0032BA  5003               	movf	fputc@fp^0,w,c
  6743   0032BC  6ED9               	movwf	fsr2l,c
  6744   0032BE  6ADA               	clrf	fsr2h,c
  6745   0032C0  0E09               	movlw	9
  6746   0032C2  26D9               	addwf	fsr2l,f,c
  6747   0032C4  5003               	movf	fputc@fp^0,w,c
  6748   0032C6  6EE1               	movwf	fsr1l,c
  6749   0032C8  6AE2               	clrf	fsr1h,c
  6750   0032CA  0E02               	movlw	2
  6751   0032CC  26E1               	addwf	fsr1l,f,c
  6752   0032CE  50DE               	movf	postinc2,w,c
  6753   0032D0  5CE6               	subwf	postinc1,w,c
  6754   0032D2  50E6               	movf	postinc1,w,c
  6755   0032D4  0A80               	xorlw	128
  6756   0032D6  6E08               	movwf	(??_fputc+4)^0,c
  6757   0032D8  50DE               	movf	postinc2,w,c
  6758   0032DA  0A80               	xorlw	128
  6759   0032DC  5808               	subwfb	(??_fputc+4)^0,w,c
  6760   0032DE  B0D8               	btfsc	status,0,c
  6761   0032E0  EF74  F019         	goto	u5201
  6762   0032E4  EF76  F019         	goto	u5200
  6763   0032E8                     u5201:
  6764   0032E8  EF8E  F019         	goto	l1016
  6765   0032EC                     u5200:
  6766   0032EC                     l3895:
  6767   0032EC  5003               	movf	fputc@fp^0,w,c
  6768   0032EE  6ED9               	movwf	fsr2l,c
  6769   0032F0  6ADA               	clrf	fsr2h,c
  6770   0032F2  0E02               	movlw	2
  6771   0032F4  26D9               	addwf	fsr2l,f,c
  6772   0032F6  50DF               	movf	indf2,w,c
  6773   0032F8  6E04               	movwf	??_fputc^0,c
  6774   0032FA  5003               	movf	fputc@fp^0,w,c
  6775   0032FC  6ED9               	movwf	fsr2l,c
  6776   0032FE  6ADA               	clrf	fsr2h,c
  6777   003300  50DF               	movf	indf2,w,c
  6778   003302  2404               	addwf	??_fputc^0,w,c
  6779   003304  6ED9               	movwf	fsr2l,c
  6780   003306  6ADA               	clrf	fsr2h,c
  6781   003308  C001  FFDF         	movff	fputc@c,indf2
  6782   00330C  5003               	movf	fputc@fp^0,w,c
  6783   00330E  6ED9               	movwf	fsr2l,c
  6784   003310  6ADA               	clrf	fsr2h,c
  6785   003312  0E02               	movlw	2
  6786   003314  26D9               	addwf	fsr2l,f,c
  6787   003316  2ADE               	incf	postinc2,f,c
  6788   003318  0E00               	movlw	0
  6789   00331A  22DD               	addwfc	postdec2,f,c
  6790   00331C                     l1016:
  6791   00331C  0012               	return		;funcret
  6792   00331E                     __end_of_fputc:
  6793                           	callstack 0
  6794                           
  6795 ;; *************** function _putch *****************
  6796 ;; Defined at:
  6797 ;;		line 7 in file "C:\Program Files\Microchip\xc8\v3.00\pic\sources\c99\common\putch.c"
  6798 ;; Parameters:    Size  Location     Type
  6799 ;;  c               1    wreg     unsigned char 
  6800 ;; Auto vars:     Size  Location     Type
  6801 ;;  c               1    0[COMRAM] unsigned char 
  6802 ;; Return value:  Size  Location     Type
  6803 ;;                  1    wreg      void 
  6804 ;; Registers used:
  6805 ;;		wreg
  6806 ;; Tracked objects:
  6807 ;;		On entry : 0/0
  6808 ;;		On exit  : 0/0
  6809 ;;		Unchanged: 0/0
  6810 ;; Data sizes:     COMRAM   BANK0   BANK1   BANK2   BANK3   BANK4   BANK5   BANK6   BANK7
  6811 ;;      Params:         0       0       0       0       0       0       0       0       0
  6812 ;;      Locals:         0       0       0       0       0       0       0       0       0
  6813 ;;      Temps:          0       0       0       0       0       0       0       0       0
  6814 ;;      Totals:         0       0       0       0       0       0       0       0       0
  6815 ;;Total ram usage:        0 bytes
  6816 ;; Hardware stack levels used: 1
  6817 ;; Hardware stack levels required when called: 1
  6818 ;; This function calls:
  6819 ;;		Nothing
  6820 ;; This function is called by:
  6821 ;;		_fputc
  6822 ;; This function uses a non-reentrant model
  6823 ;;
  6824                           
  6825                           	psect	text21
  6826   003974                     __ptext21:
  6827                           	callstack 0
  6828   003974                     _putch:
  6829                           	callstack 25
  6830   003974  0012               	return		;funcret
  6831   003976                     __end_of_putch:
  6832                           	callstack 0
  6833                           
  6834 ;; *************** function _abs *****************
  6835 ;; Defined at:
  6836 ;;		line 1 in file "C:\Program Files\Microchip\xc8\v3.00\pic\sources\c99\common\abs.c"
  6837 ;; Parameters:    Size  Location     Type
  6838 ;;  a               2    6[COMRAM] int 
  6839 ;; Auto vars:     Size  Location     Type
  6840 ;;		None
  6841 ;; Return value:  Size  Location     Type
  6842 ;;                  2    6[COMRAM] int 
  6843 ;; Registers used:
  6844 ;;		wreg, status,2, status,0
  6845 ;; Tracked objects:
  6846 ;;		On entry : 0/0
  6847 ;;		On exit  : 0/0
  6848 ;;		Unchanged: 0/0
  6849 ;; Data sizes:     COMRAM   BANK0   BANK1   BANK2   BANK3   BANK4   BANK5   BANK6   BANK7
  6850 ;;      Params:         2       0       0       0       0       0       0       0       0
  6851 ;;      Locals:         0       0       0       0       0       0       0       0       0
  6852 ;;      Temps:          2       0       0       0       0       0       0       0       0
  6853 ;;      Totals:         4       0       0       0       0       0       0       0       0
  6854 ;;Total ram usage:        4 bytes
  6855 ;; Hardware stack levels used: 1
  6856 ;; Hardware stack levels required when called: 1
  6857 ;; This function calls:
  6858 ;;		Nothing
  6859 ;; This function is called by:
  6860 ;;		_dtoa
  6861 ;; This function uses a non-reentrant model
  6862 ;;
  6863                           
  6864                           	psect	text22
  6865   0038E2                     __ptext22:
  6866                           	callstack 0
  6867   0038E2                     _abs:
  6868                           	callstack 25
  6869   0038E2  BE08               	btfsc	(abs@a+1)^0,7,c
  6870   0038E4  EF76  F01C         	goto	u6351
  6871   0038E8  EF78  F01C         	goto	u6350
  6872   0038EC                     u6351:
  6873   0038EC  EF7E  F01C         	goto	l975
  6874   0038F0                     u6350:
  6875   0038F0  C007  F007         	movff	abs@a,?_abs
  6876   0038F4  C008  F008         	movff	abs@a+1,?_abs+1
  6877   0038F8  EF8A  F01C         	goto	l978
  6878   0038FC                     l975:
  6879   0038FC  C007  F009         	movff	abs@a,??_abs
  6880   003900  C008  F00A         	movff	abs@a+1,??_abs+1
  6881   003904  1E09               	comf	??_abs^0,f,c
  6882   003906  1E0A               	comf	(??_abs+1)^0,f,c
  6883   003908  4A09               	infsnz	??_abs^0,f,c
  6884   00390A  2A0A               	incf	(??_abs+1)^0,f,c
  6885   00390C  C009  F007         	movff	??_abs,?_abs
  6886   003910  C00A  F008         	movff	??_abs+1,?_abs+1
  6887   003914                     l978:
  6888   003914  0012               	return		;funcret
  6889   003916                     __end_of_abs:
  6890                           	callstack 0
  6891                           
  6892 ;; *************** function ___awmod *****************
  6893 ;; Defined at:
  6894 ;;		line 7 in file "C:\Program Files\Microchip\xc8\v3.00\pic\sources\c99\common\awmod.c"
  6895 ;; Parameters:    Size  Location     Type
  6896 ;;  dividend        2    0[COMRAM] int 
  6897 ;;  divisor         2    2[COMRAM] int 
  6898 ;; Auto vars:     Size  Location     Type
  6899 ;;  sign            1    5[COMRAM] unsigned char 
  6900 ;;  counter         1    4[COMRAM] unsigned char 
  6901 ;; Return value:  Size  Location     Type
  6902 ;;                  2    0[COMRAM] int 
  6903 ;; Registers used:
  6904 ;;		wreg, status,2, status,0
  6905 ;; Tracked objects:
  6906 ;;		On entry : 0/0
  6907 ;;		On exit  : 0/0
  6908 ;;		Unchanged: 0/0
  6909 ;; Data sizes:     COMRAM   BANK0   BANK1   BANK2   BANK3   BANK4   BANK5   BANK6   BANK7
  6910 ;;      Params:         4       0       0       0       0       0       0       0       0
  6911 ;;      Locals:         2       0       0       0       0       0       0       0       0
  6912 ;;      Temps:          0       0       0       0       0       0       0       0       0
  6913 ;;      Totals:         6       0       0       0       0       0       0       0       0
  6914 ;;Total ram usage:        6 bytes
  6915 ;; Hardware stack levels used: 1
  6916 ;; Hardware stack levels required when called: 1
  6917 ;; This function calls:
  6918 ;;		Nothing
  6919 ;; This function is called by:
  6920 ;;		_dtoa
  6921 ;; This function uses a non-reentrant model
  6922 ;;
  6923                           
  6924                           	psect	text23
  6925   00311C                     __ptext23:
  6926                           	callstack 0
  6927   00311C                     ___awmod:
  6928                           	callstack 25
  6929   00311C  6A06               	clrf	___awmod@sign^0,c
  6930   00311E  BE02               	btfsc	(___awmod@dividend+1)^0,7,c
  6931   003120  EF96  F018         	goto	u6090
  6932   003124  EF94  F018         	goto	u6091
  6933   003128                     u6091:
  6934   003128  EF9C  F018         	goto	l4423
  6935   00312C                     u6090:
  6936   00312C  6C01               	negf	___awmod@dividend^0,c
  6937   00312E  1E02               	comf	(___awmod@dividend+1)^0,f,c
  6938   003130  B0D8               	btfsc	status,0,c
  6939   003132  2A02               	incf	(___awmod@dividend+1)^0,f,c
  6940   003134  0E01               	movlw	1
  6941   003136  6E06               	movwf	___awmod@sign^0,c
  6942   003138                     l4423:
  6943   003138  BE04               	btfsc	(___awmod@divisor+1)^0,7,c
  6944   00313A  EFA3  F018         	goto	u6100
  6945   00313E  EFA1  F018         	goto	u6101
  6946   003142                     u6101:
  6947   003142  EFA7  F018         	goto	l4427
  6948   003146                     u6100:
  6949   003146  6C03               	negf	___awmod@divisor^0,c
  6950   003148  1E04               	comf	(___awmod@divisor+1)^0,f,c
  6951   00314A  B0D8               	btfsc	status,0,c
  6952   00314C  2A04               	incf	(___awmod@divisor+1)^0,f,c
  6953   00314E                     l4427:
  6954   00314E  5003               	movf	___awmod@divisor^0,w,c
  6955   003150  1004               	iorwf	(___awmod@divisor+1)^0,w,c
  6956   003152  B4D8               	btfsc	status,2,c
  6957   003154  EFAE  F018         	goto	u6111
  6958   003158  EFB0  F018         	goto	u6110
  6959   00315C                     u6111:
  6960   00315C  EFD4  F018         	goto	l4443
  6961   003160                     u6110:
  6962   003160  0E01               	movlw	1
  6963   003162  6E05               	movwf	___awmod@counter^0,c
  6964   003164  EFB8  F018         	goto	l4433
  6965   003168                     l4431:
  6966   003168  90D8               	bcf	status,0,c
  6967   00316A  3603               	rlcf	___awmod@divisor^0,f,c
  6968   00316C  3604               	rlcf	(___awmod@divisor+1)^0,f,c
  6969   00316E  2A05               	incf	___awmod@counter^0,f,c
  6970   003170                     l4433:
  6971   003170  AE04               	btfss	(___awmod@divisor+1)^0,7,c
  6972   003172  EFBD  F018         	goto	u6121
  6973   003176  EFBF  F018         	goto	u6120
  6974   00317A                     u6121:
  6975   00317A  EFB4  F018         	goto	l4431
  6976   00317E                     u6120:
  6977   00317E                     l4435:
  6978   00317E  5003               	movf	___awmod@divisor^0,w,c
  6979   003180  5C01               	subwf	___awmod@dividend^0,w,c
  6980   003182  5004               	movf	(___awmod@divisor+1)^0,w,c
  6981   003184  5802               	subwfb	(___awmod@dividend+1)^0,w,c
  6982   003186  A0D8               	btfss	status,0,c
  6983   003188  EFC8  F018         	goto	u6131
  6984   00318C  EFCA  F018         	goto	u6130
  6985   003190                     u6131:
  6986   003190  EFCE  F018         	goto	l4439
  6987   003194                     u6130:
  6988   003194  5003               	movf	___awmod@divisor^0,w,c
  6989   003196  5E01               	subwf	___awmod@dividend^0,f,c
  6990   003198  5004               	movf	(___awmod@divisor+1)^0,w,c
  6991   00319A  5A02               	subwfb	(___awmod@dividend+1)^0,f,c
  6992   00319C                     l4439:
  6993   00319C  90D8               	bcf	status,0,c
  6994   00319E  3204               	rrcf	(___awmod@divisor+1)^0,f,c
  6995   0031A0  3203               	rrcf	___awmod@divisor^0,f,c
  6996   0031A2  2E05               	decfsz	___awmod@counter^0,f,c
  6997   0031A4  EFBF  F018         	goto	l4435
  6998   0031A8                     l4443:
  6999   0031A8  5006               	movf	___awmod@sign^0,w,c
  7000   0031AA  B4D8               	btfsc	status,2,c
  7001   0031AC  EFDA  F018         	goto	u6141
  7002   0031B0  EFDC  F018         	goto	u6140
  7003   0031B4                     u6141:
  7004   0031B4  EFE0  F018         	goto	l4447
  7005   0031B8                     u6140:
  7006   0031B8  6C01               	negf	___awmod@dividend^0,c
  7007   0031BA  1E02               	comf	(___awmod@dividend+1)^0,f,c
  7008   0031BC  B0D8               	btfsc	status,0,c
  7009   0031BE  2A02               	incf	(___awmod@dividend+1)^0,f,c
  7010   0031C0                     l4447:
  7011   0031C0  C001  F001         	movff	___awmod@dividend,?___awmod
  7012   0031C4  C002  F002         	movff	___awmod@dividend+1,?___awmod+1
  7013   0031C8  0012               	return		;funcret
  7014   0031CA                     __end_of___awmod:
  7015                           	callstack 0
  7016                           
  7017 ;; *************** function ___awdiv *****************
  7018 ;; Defined at:
  7019 ;;		line 7 in file "C:\Program Files\Microchip\xc8\v3.00\pic\sources\c99\common\awdiv.c"
  7020 ;; Parameters:    Size  Location     Type
  7021 ;;  dividend        2    0[COMRAM] int 
  7022 ;;  divisor         2    2[COMRAM] int 
  7023 ;; Auto vars:     Size  Location     Type
  7024 ;;  quotient        2    6[COMRAM] int 
  7025 ;;  sign            1    5[COMRAM] unsigned char 
  7026 ;;  counter         1    4[COMRAM] unsigned char 
  7027 ;; Return value:  Size  Location     Type
  7028 ;;                  2    0[COMRAM] int 
  7029 ;; Registers used:
  7030 ;;		wreg, status,2, status,0
  7031 ;; Tracked objects:
  7032 ;;		On entry : 0/0
  7033 ;;		On exit  : 0/0
  7034 ;;		Unchanged: 0/0
  7035 ;; Data sizes:     COMRAM   BANK0   BANK1   BANK2   BANK3   BANK4   BANK5   BANK6   BANK7
  7036 ;;      Params:         4       0       0       0       0       0       0       0       0
  7037 ;;      Locals:         4       0       0       0       0       0       0       0       0
  7038 ;;      Temps:          0       0       0       0       0       0       0       0       0
  7039 ;;      Totals:         8       0       0       0       0       0       0       0       0
  7040 ;;Total ram usage:        8 bytes
  7041 ;; Hardware stack levels used: 1
  7042 ;; Hardware stack levels required when called: 1
  7043 ;; This function calls:
  7044 ;;		Nothing
  7045 ;; This function is called by:
  7046 ;;		_dtoa
  7047 ;; This function uses a non-reentrant model
  7048 ;;
  7049                           
  7050                           	psect	text24
  7051   00305A                     __ptext24:
  7052                           	callstack 0
  7053   00305A                     ___awdiv:
  7054                           	callstack 25
  7055   00305A  6A06               	clrf	___awdiv@sign^0,c
  7056   00305C  BE04               	btfsc	(___awdiv@divisor+1)^0,7,c
  7057   00305E  EF35  F018         	goto	u6030
  7058   003062  EF33  F018         	goto	u6031
  7059   003066                     u6031:
  7060   003066  EF3B  F018         	goto	l4379
  7061   00306A                     u6030:
  7062   00306A  6C03               	negf	___awdiv@divisor^0,c
  7063   00306C  1E04               	comf	(___awdiv@divisor+1)^0,f,c
  7064   00306E  B0D8               	btfsc	status,0,c
  7065   003070  2A04               	incf	(___awdiv@divisor+1)^0,f,c
  7066   003072  0E01               	movlw	1
  7067   003074  6E06               	movwf	___awdiv@sign^0,c
  7068   003076                     l4379:
  7069   003076  BE02               	btfsc	(___awdiv@dividend+1)^0,7,c
  7070   003078  EF42  F018         	goto	u6040
  7071   00307C  EF40  F018         	goto	u6041
  7072   003080                     u6041:
  7073   003080  EF48  F018         	goto	l4385
  7074   003084                     u6040:
  7075   003084  6C01               	negf	___awdiv@dividend^0,c
  7076   003086  1E02               	comf	(___awdiv@dividend+1)^0,f,c
  7077   003088  B0D8               	btfsc	status,0,c
  7078   00308A  2A02               	incf	(___awdiv@dividend+1)^0,f,c
  7079   00308C  0E01               	movlw	1
  7080   00308E  1A06               	xorwf	___awdiv@sign^0,f,c
  7081   003090                     l4385:
  7082   003090  0E00               	movlw	0
  7083   003092  6E08               	movwf	(___awdiv@quotient+1)^0,c
  7084   003094  0E00               	movlw	0
  7085   003096  6E07               	movwf	___awdiv@quotient^0,c
  7086   003098  5003               	movf	___awdiv@divisor^0,w,c
  7087   00309A  1004               	iorwf	(___awdiv@divisor+1)^0,w,c
  7088   00309C  B4D8               	btfsc	status,2,c
  7089   00309E  EF53  F018         	goto	u6051
  7090   0030A2  EF55  F018         	goto	u6050
  7091   0030A6                     u6051:
  7092   0030A6  EF7D  F018         	goto	l4407
  7093   0030AA                     u6050:
  7094   0030AA  0E01               	movlw	1
  7095   0030AC  6E05               	movwf	___awdiv@counter^0,c
  7096   0030AE  EF5D  F018         	goto	l4393
  7097   0030B2                     l4391:
  7098   0030B2  90D8               	bcf	status,0,c
  7099   0030B4  3603               	rlcf	___awdiv@divisor^0,f,c
  7100   0030B6  3604               	rlcf	(___awdiv@divisor+1)^0,f,c
  7101   0030B8  2A05               	incf	___awdiv@counter^0,f,c
  7102   0030BA                     l4393:
  7103   0030BA  AE04               	btfss	(___awdiv@divisor+1)^0,7,c
  7104   0030BC  EF62  F018         	goto	u6061
  7105   0030C0  EF64  F018         	goto	u6060
  7106   0030C4                     u6061:
  7107   0030C4  EF59  F018         	goto	l4391
  7108   0030C8                     u6060:
  7109   0030C8                     l4395:
  7110   0030C8  90D8               	bcf	status,0,c
  7111   0030CA  3607               	rlcf	___awdiv@quotient^0,f,c
  7112   0030CC  3608               	rlcf	(___awdiv@quotient+1)^0,f,c
  7113   0030CE  5003               	movf	___awdiv@divisor^0,w,c
  7114   0030D0  5C01               	subwf	___awdiv@dividend^0,w,c
  7115   0030D2  5004               	movf	(___awdiv@divisor+1)^0,w,c
  7116   0030D4  5802               	subwfb	(___awdiv@dividend+1)^0,w,c
  7117   0030D6  A0D8               	btfss	status,0,c
  7118   0030D8  EF70  F018         	goto	u6071
  7119   0030DC  EF72  F018         	goto	u6070
  7120   0030E0                     u6071:
  7121   0030E0  EF77  F018         	goto	l4403
  7122   0030E4                     u6070:
  7123   0030E4  5003               	movf	___awdiv@divisor^0,w,c
  7124   0030E6  5E01               	subwf	___awdiv@dividend^0,f,c
  7125   0030E8  5004               	movf	(___awdiv@divisor+1)^0,w,c
  7126   0030EA  5A02               	subwfb	(___awdiv@dividend+1)^0,f,c
  7127   0030EC  8007               	bsf	___awdiv@quotient^0,0,c
  7128   0030EE                     l4403:
  7129   0030EE  90D8               	bcf	status,0,c
  7130   0030F0  3204               	rrcf	(___awdiv@divisor+1)^0,f,c
  7131   0030F2  3203               	rrcf	___awdiv@divisor^0,f,c
  7132   0030F4  2E05               	decfsz	___awdiv@counter^0,f,c
  7133   0030F6  EF64  F018         	goto	l4395
  7134   0030FA                     l4407:
  7135   0030FA  5006               	movf	___awdiv@sign^0,w,c
  7136   0030FC  B4D8               	btfsc	status,2,c
  7137   0030FE  EF83  F018         	goto	u6081
  7138   003102  EF85  F018         	goto	u6080
  7139   003106                     u6081:
  7140   003106  EF89  F018         	goto	l4411
  7141   00310A                     u6080:
  7142   00310A  6C07               	negf	___awdiv@quotient^0,c
  7143   00310C  1E08               	comf	(___awdiv@quotient+1)^0,f,c
  7144   00310E  B0D8               	btfsc	status,0,c
  7145   003110  2A08               	incf	(___awdiv@quotient+1)^0,f,c
  7146   003112                     l4411:
  7147   003112  C007  F001         	movff	___awdiv@quotient,?___awdiv
  7148   003116  C008  F002         	movff	___awdiv@quotient+1,?___awdiv+1
  7149   00311A  0012               	return		;funcret
  7150   00311C                     __end_of___awdiv:
  7151                           	callstack 0
  7152                           
  7153 ;; *************** function _setup_adc *****************
  7154 ;; Defined at:
  7155 ;;		line 31 in file "main.c"
  7156 ;; Parameters:    Size  Location     Type
  7157 ;;		None
  7158 ;; Auto vars:     Size  Location     Type
  7159 ;;		None
  7160 ;; Return value:  Size  Location     Type
  7161 ;;                  1    wreg      void 
  7162 ;; Registers used:
  7163 ;;		wreg, status,2
  7164 ;; Tracked objects:
  7165 ;;		On entry : 0/0
  7166 ;;		On exit  : 0/0
  7167 ;;		Unchanged: 0/0
  7168 ;; Data sizes:     COMRAM   BANK0   BANK1   BANK2   BANK3   BANK4   BANK5   BANK6   BANK7
  7169 ;;      Params:         0       0       0       0       0       0       0       0       0
  7170 ;;      Locals:         0       0       0       0       0       0       0       0       0
  7171 ;;      Temps:          0       0       0       0       0       0       0       0       0
  7172 ;;      Totals:         0       0       0       0       0       0       0       0       0
  7173 ;;Total ram usage:        0 bytes
  7174 ;; Hardware stack levels used: 1
  7175 ;; Hardware stack levels required when called: 1
  7176 ;; This function calls:
  7177 ;;		Nothing
  7178 ;; This function is called by:
  7179 ;;		_main
  7180 ;; This function uses a non-reentrant model
  7181 ;;
  7182                           
  7183                           	psect	text25
  7184   00395E                     __ptext25:
  7185                           	callstack 0
  7186   00395E                     _setup_adc:
  7187                           	callstack 29
  7188   00395E                     
  7189                           ;main.c: 32:         INTCONbits.INT0IF = 0;
  7190   00395E  0E01               	movlw	1
  7191   003960  6EC2               	movwf	194,c	;volatile
  7192                           
  7193                           ;main.c: 34:         alarme_ativo = 0;
  7194   003962  0E0E               	movlw	14
  7195   003964  6EC1               	movwf	193,c	;volatile
  7196                           
  7197                           ;main.c: 36: 
  7198   003966  0EAE               	movlw	174
  7199   003968  6EC0               	movwf	192,c	;volatile
  7200   00396A  0012               	return		;funcret
  7201   00396C                     __end_of_setup_adc:
  7202                           	callstack 0
  7203                           
  7204 ;; *************** function _read_adc_channel *****************
  7205 ;; Defined at:
  7206 ;;		line 40 in file "main.c"
  7207 ;; Parameters:    Size  Location     Type
  7208 ;;  channel         1    wreg     unsigned char 
  7209 ;; Auto vars:     Size  Location     Type
  7210 ;;  channel         1    4[COMRAM] unsigned char 
  7211 ;; Return value:  Size  Location     Type
  7212 ;;                  2    0[COMRAM] unsigned int 
  7213 ;; Registers used:
  7214 ;;		wreg, status,2, status,0
  7215 ;; Tracked objects:
  7216 ;;		On entry : 0/0
  7217 ;;		On exit  : 0/0
  7218 ;;		Unchanged: 0/0
  7219 ;; Data sizes:     COMRAM   BANK0   BANK1   BANK2   BANK3   BANK4   BANK5   BANK6   BANK7
  7220 ;;      Params:         2       0       0       0       0       0       0       0       0
  7221 ;;      Locals:         1       0       0       0       0       0       0       0       0
  7222 ;;      Temps:          2       0       0       0       0       0       0       0       0
  7223 ;;      Totals:         5       0       0       0       0       0       0       0       0
  7224 ;;Total ram usage:        5 bytes
  7225 ;; Hardware stack levels used: 1
  7226 ;; Hardware stack levels required when called: 1
  7227 ;; This function calls:
  7228 ;;		Nothing
  7229 ;; This function is called by:
  7230 ;;		_main
  7231 ;; This function uses a non-reentrant model
  7232 ;;
  7233                           
  7234                           	psect	text26
  7235   003736                     __ptext26:
  7236                           	callstack 0
  7237   003736                     _read_adc_channel:
  7238                           	callstack 29
  7239                           
  7240                           ;incstack = 0
  7241                           ;read_adc_channel@channel stored from wreg
  7242   003736  6E05               	movwf	read_adc_channel@channel^0,c
  7243   003738                     
  7244                           ;main.c: 41: 
  7245   003738  C005  F003         	movff	read_adc_channel@channel,??_read_adc_channel
  7246   00373C  4603               	rlncf	??_read_adc_channel^0,f,c
  7247   00373E  4603               	rlncf	??_read_adc_channel^0,f,c
  7248   003740  50C2               	movf	194,w,c	;volatile
  7249   003742  1803               	xorwf	??_read_adc_channel^0,w,c
  7250   003744  0BC3               	andlw	-61
  7251   003746  1803               	xorwf	??_read_adc_channel^0,w,c
  7252   003748  6EC2               	movwf	194,c	;volatile
  7253   00374A                     
  7254                           ;main.c: 42: 
  7255   00374A  0E53               	movlw	83
  7256   00374C                     u7627:
  7257   00374C  2EE8               	decfsz	wreg,f,c
  7258   00374E  D7FE               	bra	u7627
  7259   003750  0000               	nop	
  7260   003752                     
  7261                           ;main.c: 43:     float temp = ((float)adc_valor / 950.0) * 27.0;
  7262   003752  82C2               	bsf	194,1,c	;volatile
  7263   003754                     l89:
  7264   003754  B2C2               	btfsc	194,1,c	;volatile
  7265   003756  EFAF  F01B         	goto	u4701
  7266   00375A  EFB1  F01B         	goto	u4700
  7267   00375E                     u4701:
  7268   00375E  EFAA  F01B         	goto	l89
  7269   003762                     u4700:
  7270   003762                     
  7271                           ;main.c: 45: }
  7272   003762  50C3               	movf	195,w,c	;volatile
  7273   003764  CFC4 F003          	movff	4036,??_read_adc_channel	;volatile
  7274   003768  6A04               	clrf	(??_read_adc_channel+1)^0,c
  7275   00376A  C003  F004         	movff	??_read_adc_channel,??_read_adc_channel+1
  7276   00376E  6A03               	clrf	??_read_adc_channel^0,c
  7277   003770  1003               	iorwf	??_read_adc_channel^0,w,c
  7278   003772  6E01               	movwf	?_read_adc_channel^0,c
  7279   003774  5004               	movf	(??_read_adc_channel+1)^0,w,c
  7280   003776  6E02               	movwf	(?_read_adc_channel+1)^0,c
  7281   003778  0012               	return		;funcret
  7282   00377A                     __end_of_read_adc_channel:
  7283                           	callstack 0
  7284                           
  7285 ;; *************** function _calculaTemperaturaSimples *****************
  7286 ;; Defined at:
  7287 ;;		line 64 in file "main.c"
  7288 ;; Parameters:    Size  Location     Type
  7289 ;;  adc_valor       2   64[COMRAM] unsigned int 
  7290 ;; Auto vars:     Size  Location     Type
  7291 ;;  temp            4   68[COMRAM] float 
  7292 ;; Return value:  Size  Location     Type
  7293 ;;                  4   64[COMRAM] float 
  7294 ;; Registers used:
  7295 ;;		wreg, status,2, status,0, prodl, prodh, cstack
  7296 ;; Tracked objects:
  7297 ;;		On entry : 0/0
  7298 ;;		On exit  : 0/0
  7299 ;;		Unchanged: 0/0
  7300 ;; Data sizes:     COMRAM   BANK0   BANK1   BANK2   BANK3   BANK4   BANK5   BANK6   BANK7
  7301 ;;      Params:         4       0       0       0       0       0       0       0       0
  7302 ;;      Locals:         4       0       0       0       0       0       0       0       0
  7303 ;;      Temps:          0       0       0       0       0       0       0       0       0
  7304 ;;      Totals:         8       0       0       0       0       0       0       0       0
  7305 ;;Total ram usage:        8 bytes
  7306 ;; Hardware stack levels used: 1
  7307 ;; Hardware stack levels required when called: 2
  7308 ;; This function calls:
  7309 ;;		___fldiv
  7310 ;;		___flmul
  7311 ;;		___xxtofl
  7312 ;; This function is called by:
  7313 ;;		_main
  7314 ;; This function uses a non-reentrant model
  7315 ;;
  7316                           
  7317                           	psect	text27
  7318   003458                     __ptext27:
  7319                           	callstack 0
  7320   003458                     _calculaTemperaturaSimples:
  7321                           	callstack 28
  7322   003458                     
  7323                           ;main.c: 67:     TRISD = 0x00;
  7324   003458  0E00               	movlw	0
  7325   00345A  6E13               	movwf	___fldiv@a^0,c
  7326   00345C  0E80               	movlw	128
  7327   00345E  6E14               	movwf	(___fldiv@a+1)^0,c
  7328   003460  0E6D               	movlw	109
  7329   003462  6E15               	movwf	(___fldiv@a+2)^0,c
  7330   003464  0E44               	movlw	68
  7331   003466  6E16               	movwf	(___fldiv@a+3)^0,c
  7332   003468  C041  F001         	movff	calculaTemperaturaSimples@adc_valor,___xxtofl@val
  7333   00346C  C042  F002         	movff	calculaTemperaturaSimples@adc_valor+1,___xxtofl@val+1
  7334   003470  6A03               	clrf	(___xxtofl@val+2)^0,c
  7335   003472  6A04               	clrf	(___xxtofl@val+3)^0,c
  7336   003474  0E00               	movlw	0
  7337   003476  ECF6  F014         	call	___xxtofl
  7338   00347A  C001  F00F         	movff	?___xxtofl,___fldiv@b
  7339   00347E  C002  F010         	movff	?___xxtofl+1,___fldiv@b+1
  7340   003482  C003  F011         	movff	?___xxtofl+2,___fldiv@b+2
  7341   003486  C004  F012         	movff	?___xxtofl+3,___fldiv@b+3
  7342   00348A  ECC5  F010         	call	___fldiv	;wreg free
  7343   00348E  C00F  F028         	movff	?___fldiv,___flmul@b
  7344   003492  C010  F029         	movff	?___fldiv+1,___flmul@b+1
  7345   003496  C011  F02A         	movff	?___fldiv+2,___flmul@b+2
  7346   00349A  C012  F02B         	movff	?___fldiv+3,___flmul@b+3
  7347   00349E  0E00               	movlw	0
  7348   0034A0  6E2C               	movwf	___flmul@a^0,c
  7349   0034A2  0E00               	movlw	0
  7350   0034A4  6E2D               	movwf	(___flmul@a+1)^0,c
  7351   0034A6  0ED8               	movlw	216
  7352   0034A8  6E2E               	movwf	(___flmul@a+2)^0,c
  7353   0034AA  0E41               	movlw	65
  7354   0034AC  6E2F               	movwf	(___flmul@a+3)^0,c
  7355   0034AE  ECB2  F00E         	call	___flmul	;wreg free
  7356   0034B2  C028  F045         	movff	?___flmul,calculaTemperaturaSimples@temp
  7357   0034B6  C029  F046         	movff	?___flmul+1,calculaTemperaturaSimples@temp+1
  7358   0034BA  C02A  F047         	movff	?___flmul+2,calculaTemperaturaSimples@temp+2
  7359   0034BE  C02B  F048         	movff	?___flmul+3,calculaTemperaturaSimples@temp+3
  7360   0034C2                     
  7361                           ;main.c: 68:     TRISCbits.TRISC2 = 0;
  7362   0034C2  C045  F041         	movff	calculaTemperaturaSimples@temp,?_calculaTemperaturaSimples
  7363   0034C6  C046  F042         	movff	calculaTemperaturaSimples@temp+1,?_calculaTemperaturaSimples+1
  7364   0034CA  C047  F043         	movff	calculaTemperaturaSimples@temp+2,?_calculaTemperaturaSimples+2
  7365   0034CE  C048  F044         	movff	calculaTemperaturaSimples@temp+3,?_calculaTemperaturaSimples+3
  7366   0034D2  0012               	return		;funcret
  7367   0034D4                     __end_of_calculaTemperaturaSimples:
  7368                           	callstack 0
  7369                           
  7370 ;; *************** function ___xxtofl *****************
  7371 ;; Defined at:
  7372 ;;		line 10 in file "C:\Program Files\Microchip\xc8\v3.00\pic\sources\c99\common\xxtofl.c"
  7373 ;; Parameters:    Size  Location     Type
  7374 ;;  sign            1    wreg     unsigned char 
  7375 ;;  val             4    0[COMRAM] long 
  7376 ;; Auto vars:     Size  Location     Type
  7377 ;;  sign            1    8[COMRAM] unsigned char 
  7378 ;;  arg             4   10[COMRAM] unsigned long 
  7379 ;;  exp             1    9[COMRAM] unsigned char 
  7380 ;; Return value:  Size  Location     Type
  7381 ;;                  4    0[COMRAM] unsigned char 
  7382 ;; Registers used:
  7383 ;;		wreg, status,2, status,0
  7384 ;; Tracked objects:
  7385 ;;		On entry : 0/0
  7386 ;;		On exit  : 0/0
  7387 ;;		Unchanged: 0/0
  7388 ;; Data sizes:     COMRAM   BANK0   BANK1   BANK2   BANK3   BANK4   BANK5   BANK6   BANK7
  7389 ;;      Params:         4       0       0       0       0       0       0       0       0
  7390 ;;      Locals:         6       0       0       0       0       0       0       0       0
  7391 ;;      Temps:          4       0       0       0       0       0       0       0       0
  7392 ;;      Totals:        14       0       0       0       0       0       0       0       0
  7393 ;;Total ram usage:       14 bytes
  7394 ;; Hardware stack levels used: 1
  7395 ;; Hardware stack levels required when called: 1
  7396 ;; This function calls:
  7397 ;;		Nothing
  7398 ;; This function is called by:
  7399 ;;		_calculaTemperaturaSimples
  7400 ;; This function uses a non-reentrant model
  7401 ;;
  7402                           
  7403                           	psect	text28
  7404   0029EC                     __ptext28:
  7405                           	callstack 0
  7406   0029EC                     ___xxtofl:
  7407                           	callstack 28
  7408                           
  7409                           ;incstack = 0
  7410                           ;___xxtofl@sign stored from wreg
  7411   0029EC  6E09               	movwf	___xxtofl@sign^0,c
  7412   0029EE  5009               	movf	___xxtofl@sign^0,w,c
  7413   0029F0  B4D8               	btfsc	status,2,c
  7414   0029F2  EFFD  F014         	goto	u4541
  7415   0029F6  EFFF  F014         	goto	u4540
  7416   0029FA                     u4541:
  7417   0029FA  EF21  F015         	goto	l777
  7418   0029FE                     u4540:
  7419   0029FE  BE04               	btfsc	(___xxtofl@val+3)^0,7,c
  7420   002A00  EF06  F015         	goto	u4550
  7421   002A04  EF04  F015         	goto	u4551
  7422   002A08                     u4551:
  7423   002A08  EF21  F015         	goto	l777
  7424   002A0C                     u4550:
  7425   002A0C  C001  F005         	movff	___xxtofl@val,??___xxtofl
  7426   002A10  C002  F006         	movff	___xxtofl@val+1,??___xxtofl+1
  7427   002A14  C003  F007         	movff	___xxtofl@val+2,??___xxtofl+2
  7428   002A18  C004  F008         	movff	___xxtofl@val+3,??___xxtofl+3
  7429   002A1C  1E05               	comf	??___xxtofl^0,f,c
  7430   002A1E  1E06               	comf	(??___xxtofl+1)^0,f,c
  7431   002A20  1E07               	comf	(??___xxtofl+2)^0,f,c
  7432   002A22  1E08               	comf	(??___xxtofl+3)^0,f,c
  7433   002A24  2A05               	incf	??___xxtofl^0,f,c
  7434   002A26  0E00               	movlw	0
  7435   002A28  2206               	addwfc	(??___xxtofl+1)^0,f,c
  7436   002A2A  2207               	addwfc	(??___xxtofl+2)^0,f,c
  7437   002A2C  2208               	addwfc	(??___xxtofl+3)^0,f,c
  7438   002A2E  C005  F00B         	movff	??___xxtofl,___xxtofl@arg
  7439   002A32  C006  F00C         	movff	??___xxtofl+1,___xxtofl@arg+1
  7440   002A36  C007  F00D         	movff	??___xxtofl+2,___xxtofl@arg+2
  7441   002A3A  C008  F00E         	movff	??___xxtofl+3,___xxtofl@arg+3
  7442   002A3E  EF29  F015         	goto	l3629
  7443   002A42                     l777:
  7444   002A42  C001  F00B         	movff	___xxtofl@val,___xxtofl@arg
  7445   002A46  C002  F00C         	movff	___xxtofl@val+1,___xxtofl@arg+1
  7446   002A4A  C003  F00D         	movff	___xxtofl@val+2,___xxtofl@arg+2
  7447   002A4E  C004  F00E         	movff	___xxtofl@val+3,___xxtofl@arg+3
  7448   002A52                     l3629:
  7449   002A52  5001               	movf	___xxtofl@val^0,w,c
  7450   002A54  1002               	iorwf	(___xxtofl@val+1)^0,w,c
  7451   002A56  1003               	iorwf	(___xxtofl@val+2)^0,w,c
  7452   002A58  1004               	iorwf	(___xxtofl@val+3)^0,w,c
  7453   002A5A  A4D8               	btfss	status,2,c
  7454   002A5C  EF32  F015         	goto	u4561
  7455   002A60  EF34  F015         	goto	u4560
  7456   002A64                     u4561:
  7457   002A64  EF3E  F015         	goto	l3635
  7458   002A68                     u4560:
  7459   002A68  0E00               	movlw	0
  7460   002A6A  6E01               	movwf	?___xxtofl^0,c
  7461   002A6C  0E00               	movlw	0
  7462   002A6E  6E02               	movwf	(?___xxtofl+1)^0,c
  7463   002A70  0E00               	movlw	0
  7464   002A72  6E03               	movwf	(?___xxtofl+2)^0,c
  7465   002A74  0E00               	movlw	0
  7466   002A76  6E04               	movwf	(?___xxtofl+3)^0,c
  7467   002A78  EFCF  F015         	goto	l780
  7468   002A7C                     l3635:
  7469   002A7C  0E96               	movlw	150
  7470   002A7E  6E0A               	movwf	___xxtofl@exp^0,c
  7471   002A80  EF48  F015         	goto	l3639
  7472   002A84                     l3637:
  7473   002A84  2A0A               	incf	___xxtofl@exp^0,f,c
  7474   002A86  90D8               	bcf	status,0,c
  7475   002A88  320E               	rrcf	(___xxtofl@arg+3)^0,f,c
  7476   002A8A  320D               	rrcf	(___xxtofl@arg+2)^0,f,c
  7477   002A8C  320C               	rrcf	(___xxtofl@arg+1)^0,f,c
  7478   002A8E  320B               	rrcf	___xxtofl@arg^0,f,c
  7479   002A90                     l3639:
  7480   002A90  0E00               	movlw	0
  7481   002A92  140B               	andwf	___xxtofl@arg^0,w,c
  7482   002A94  6E05               	movwf	??___xxtofl^0,c
  7483   002A96  0E00               	movlw	0
  7484   002A98  140C               	andwf	(___xxtofl@arg+1)^0,w,c
  7485   002A9A  6E06               	movwf	(??___xxtofl+1)^0,c
  7486   002A9C  0E00               	movlw	0
  7487   002A9E  140D               	andwf	(___xxtofl@arg+2)^0,w,c
  7488   002AA0  6E07               	movwf	(??___xxtofl+2)^0,c
  7489   002AA2  0EFE               	movlw	254
  7490   002AA4  140E               	andwf	(___xxtofl@arg+3)^0,w,c
  7491   002AA6  6E08               	movwf	(??___xxtofl+3)^0,c
  7492   002AA8  5005               	movf	??___xxtofl^0,w,c
  7493   002AAA  1006               	iorwf	(??___xxtofl+1)^0,w,c
  7494   002AAC  1007               	iorwf	(??___xxtofl+2)^0,w,c
  7495   002AAE  1008               	iorwf	(??___xxtofl+3)^0,w,c
  7496   002AB0  A4D8               	btfss	status,2,c
  7497   002AB2  EF5D  F015         	goto	u4571
  7498   002AB6  EF5F  F015         	goto	u4570
  7499   002ABA                     u4571:
  7500   002ABA  EF42  F015         	goto	l3637
  7501   002ABE                     u4570:
  7502   002ABE  EF6D  F015         	goto	l784
  7503   002AC2                     l3641:
  7504   002AC2  2A0A               	incf	___xxtofl@exp^0,f,c
  7505   002AC4  0E01               	movlw	1
  7506   002AC6  260B               	addwf	___xxtofl@arg^0,f,c
  7507   002AC8  0E00               	movlw	0
  7508   002ACA  220C               	addwfc	(___xxtofl@arg+1)^0,f,c
  7509   002ACC  220D               	addwfc	(___xxtofl@arg+2)^0,f,c
  7510   002ACE  220E               	addwfc	(___xxtofl@arg+3)^0,f,c
  7511   002AD0  90D8               	bcf	status,0,c
  7512   002AD2  320E               	rrcf	(___xxtofl@arg+3)^0,f,c
  7513   002AD4  320D               	rrcf	(___xxtofl@arg+2)^0,f,c
  7514   002AD6  320C               	rrcf	(___xxtofl@arg+1)^0,f,c
  7515   002AD8  320B               	rrcf	___xxtofl@arg^0,f,c
  7516   002ADA                     l784:
  7517   002ADA  0E00               	movlw	0
  7518   002ADC  140B               	andwf	___xxtofl@arg^0,w,c
  7519   002ADE  6E05               	movwf	??___xxtofl^0,c
  7520   002AE0  0E00               	movlw	0
  7521   002AE2  140C               	andwf	(___xxtofl@arg+1)^0,w,c
  7522   002AE4  6E06               	movwf	(??___xxtofl+1)^0,c
  7523   002AE6  0E00               	movlw	0
  7524   002AE8  140D               	andwf	(___xxtofl@arg+2)^0,w,c
  7525   002AEA  6E07               	movwf	(??___xxtofl+2)^0,c
  7526   002AEC  0EFF               	movlw	255
  7527   002AEE  140E               	andwf	(___xxtofl@arg+3)^0,w,c
  7528   002AF0  6E08               	movwf	(??___xxtofl+3)^0,c
  7529   002AF2  5005               	movf	??___xxtofl^0,w,c
  7530   002AF4  1006               	iorwf	(??___xxtofl+1)^0,w,c
  7531   002AF6  1007               	iorwf	(??___xxtofl+2)^0,w,c
  7532   002AF8  1008               	iorwf	(??___xxtofl+3)^0,w,c
  7533   002AFA  A4D8               	btfss	status,2,c
  7534   002AFC  EF82  F015         	goto	u4581
  7535   002B00  EF84  F015         	goto	u4580
  7536   002B04                     u4581:
  7537   002B04  EF61  F015         	goto	l3641
  7538   002B08                     u4580:
  7539   002B08  EF8C  F015         	goto	l3649
  7540   002B0C                     l3647:
  7541   002B0C  060A               	decf	___xxtofl@exp^0,f,c
  7542   002B0E  90D8               	bcf	status,0,c
  7543   002B10  360B               	rlcf	___xxtofl@arg^0,f,c
  7544   002B12  360C               	rlcf	(___xxtofl@arg+1)^0,f,c
  7545   002B14  360D               	rlcf	(___xxtofl@arg+2)^0,f,c
  7546   002B16  360E               	rlcf	(___xxtofl@arg+3)^0,f,c
  7547   002B18                     l3649:
  7548   002B18  BE0D               	btfsc	(___xxtofl@arg+2)^0,7,c
  7549   002B1A  EF91  F015         	goto	u4591
  7550   002B1E  EF93  F015         	goto	u4590
  7551   002B22                     u4591:
  7552   002B22  EF9B  F015         	goto	l791
  7553   002B26                     u4590:
  7554   002B26  0E02               	movlw	2
  7555   002B28  600A               	cpfslt	___xxtofl@exp^0,c
  7556   002B2A  EF99  F015         	goto	u4601
  7557   002B2E  EF9B  F015         	goto	u4600
  7558   002B32                     u4601:
  7559   002B32  EF86  F015         	goto	l3647
  7560   002B36                     u4600:
  7561   002B36                     l791:
  7562   002B36  B00A               	btfsc	___xxtofl@exp^0,0,c
  7563   002B38  EFA0  F015         	goto	u4611
  7564   002B3C  EFA2  F015         	goto	u4610
  7565   002B40                     u4611:
  7566   002B40  EFA3  F015         	goto	l3655
  7567   002B44                     u4610:
  7568   002B44  9E0D               	bcf	(___xxtofl@arg+2)^0,7,c
  7569   002B46                     l3655:
  7570   002B46  90D8               	bcf	status,0,c
  7571   002B48  320A               	rrcf	___xxtofl@exp^0,f,c
  7572   002B4A  C00A  F005         	movff	___xxtofl@exp,??___xxtofl
  7573   002B4E  6A06               	clrf	(??___xxtofl+1)^0,c
  7574   002B50  6A07               	clrf	(??___xxtofl+2)^0,c
  7575   002B52  6A08               	clrf	(??___xxtofl+3)^0,c
  7576   002B54  C005  F008         	movff	??___xxtofl,??___xxtofl+3
  7577   002B58  6A07               	clrf	(??___xxtofl+2)^0,c
  7578   002B5A  6A06               	clrf	(??___xxtofl+1)^0,c
  7579   002B5C  6A05               	clrf	??___xxtofl^0,c
  7580   002B5E  5005               	movf	??___xxtofl^0,w,c
  7581   002B60  120B               	iorwf	___xxtofl@arg^0,f,c
  7582   002B62  5006               	movf	(??___xxtofl+1)^0,w,c
  7583   002B64  120C               	iorwf	(___xxtofl@arg+1)^0,f,c
  7584   002B66  5007               	movf	(??___xxtofl+2)^0,w,c
  7585   002B68  120D               	iorwf	(___xxtofl@arg+2)^0,f,c
  7586   002B6A  5008               	movf	(??___xxtofl+3)^0,w,c
  7587   002B6C  120E               	iorwf	(___xxtofl@arg+3)^0,f,c
  7588   002B6E  5009               	movf	___xxtofl@sign^0,w,c
  7589   002B70  B4D8               	btfsc	status,2,c
  7590   002B72  EFBD  F015         	goto	u4621
  7591   002B76  EFBF  F015         	goto	u4620
  7592   002B7A                     u4621:
  7593   002B7A  EFC7  F015         	goto	l3665
  7594   002B7E                     u4620:
  7595   002B7E  BE04               	btfsc	(___xxtofl@val+3)^0,7,c
  7596   002B80  EFC6  F015         	goto	u4630
  7597   002B84  EFC4  F015         	goto	u4631
  7598   002B88                     u4631:
  7599   002B88  EFC7  F015         	goto	l3665
  7600   002B8C                     u4630:
  7601   002B8C  8E0E               	bsf	(___xxtofl@arg+3)^0,7,c
  7602   002B8E                     l3665:
  7603   002B8E  C00B  F001         	movff	___xxtofl@arg,?___xxtofl
  7604   002B92  C00C  F002         	movff	___xxtofl@arg+1,?___xxtofl+1
  7605   002B96  C00D  F003         	movff	___xxtofl@arg+2,?___xxtofl+2
  7606   002B9A  C00E  F004         	movff	___xxtofl@arg+3,?___xxtofl+3
  7607   002B9E                     l780:
  7608   002B9E  0012               	return		;funcret
  7609   002BA0                     __end_of___xxtofl:
  7610                           	callstack 0
  7611                           
  7612 ;; *************** function ___flmul *****************
  7613 ;; Defined at:
  7614 ;;		line 8 in file "C:\Program Files\Microchip\xc8\v3.00\pic\sources\c99\common\sprcmul.c"
  7615 ;; Parameters:    Size  Location     Type
  7616 ;;  b               4   39[COMRAM] unsigned char 
  7617 ;;  a               4   43[COMRAM] unsigned char 
  7618 ;; Auto vars:     Size  Location     Type
  7619 ;;  prod            4   58[COMRAM] struct .
  7620 ;;  grs             4   53[COMRAM] unsigned long 
  7621 ;;  temp            2   62[COMRAM] struct .
  7622 ;;  bexp            1   57[COMRAM] unsigned char 
  7623 ;;  aexp            1   52[COMRAM] unsigned char 
  7624 ;;  sign            1   51[COMRAM] unsigned char 
  7625 ;; Return value:  Size  Location     Type
  7626 ;;                  4   39[COMRAM] unsigned char 
  7627 ;; Registers used:
  7628 ;;		wreg, status,2, status,0, prodl, prodh
  7629 ;; Tracked objects:
  7630 ;;		On entry : 0/0
  7631 ;;		On exit  : 0/0
  7632 ;;		Unchanged: 0/0
  7633 ;; Data sizes:     COMRAM   BANK0   BANK1   BANK2   BANK3   BANK4   BANK5   BANK6   BANK7
  7634 ;;      Params:         8       0       0       0       0       0       0       0       0
  7635 ;;      Locals:        13       0       0       0       0       0       0       0       0
  7636 ;;      Temps:          4       0       0       0       0       0       0       0       0
  7637 ;;      Totals:        25       0       0       0       0       0       0       0       0
  7638 ;;Total ram usage:       25 bytes
  7639 ;; Hardware stack levels used: 1
  7640 ;; Hardware stack levels required when called: 1
  7641 ;; This function calls:
  7642 ;;		Nothing
  7643 ;; This function is called by:
  7644 ;;		_calculaTemperaturaSimples
  7645 ;;		_efgtoa
  7646 ;; This function uses a non-reentrant model
  7647 ;;
  7648                           
  7649                           	psect	text29
  7650   001D64                     __ptext29:
  7651                           	callstack 0
  7652   001D64                     ___flmul:
  7653                           	callstack 25
  7654   001D64  502B               	movf	(___flmul@b+3)^0,w,c
  7655   001D66  0B80               	andlw	128
  7656   001D68  6E34               	movwf	___flmul@sign^0,c
  7657   001D6A  502B               	movf	(___flmul@b+3)^0,w,c
  7658   001D6C  242B               	addwf	(___flmul@b+3)^0,w,c
  7659   001D6E  6E3A               	movwf	___flmul@bexp^0,c
  7660   001D70  AE2A               	btfss	(___flmul@b+2)^0,7,c
  7661   001D72  EFBD  F00E         	goto	u5841
  7662   001D76  EFBF  F00E         	goto	u5840
  7663   001D7A                     u5841:
  7664   001D7A  EFC0  F00E         	goto	l4243
  7665   001D7E                     u5840:
  7666   001D7E  803A               	bsf	___flmul@bexp^0,0,c
  7667   001D80                     l4243:
  7668   001D80  503A               	movf	___flmul@bexp^0,w,c
  7669   001D82  B4D8               	btfsc	status,2,c
  7670   001D84  EFC6  F00E         	goto	u5851
  7671   001D88  EFC8  F00E         	goto	u5850
  7672   001D8C                     u5851:
  7673   001D8C  EFDB  F00E         	goto	l4251
  7674   001D90                     u5850:
  7675   001D90  283A               	incf	___flmul@bexp^0,w,c
  7676   001D92  A4D8               	btfss	status,2,c
  7677   001D94  EFCE  F00E         	goto	u5861
  7678   001D98  EFD0  F00E         	goto	u5860
  7679   001D9C                     u5861:
  7680   001D9C  EFD8  F00E         	goto	l4249
  7681   001DA0                     u5860:
  7682   001DA0  0E00               	movlw	0
  7683   001DA2  6E28               	movwf	___flmul@b^0,c
  7684   001DA4  0E00               	movlw	0
  7685   001DA6  6E29               	movwf	(___flmul@b+1)^0,c
  7686   001DA8  0E00               	movlw	0
  7687   001DAA  6E2A               	movwf	(___flmul@b+2)^0,c
  7688   001DAC  0E00               	movlw	0
  7689   001DAE  6E2B               	movwf	(___flmul@b+3)^0,c
  7690   001DB0                     l4249:
  7691   001DB0  8E2A               	bsf	(___flmul@b+2)^0,7,c
  7692   001DB2  EFE3  F00E         	goto	l4253
  7693   001DB6                     l4251:
  7694   001DB6  0E00               	movlw	0
  7695   001DB8  6E28               	movwf	___flmul@b^0,c
  7696   001DBA  0E00               	movlw	0
  7697   001DBC  6E29               	movwf	(___flmul@b+1)^0,c
  7698   001DBE  0E00               	movlw	0
  7699   001DC0  6E2A               	movwf	(___flmul@b+2)^0,c
  7700   001DC2  0E00               	movlw	0
  7701   001DC4  6E2B               	movwf	(___flmul@b+3)^0,c
  7702   001DC6                     l4253:
  7703   001DC6  502F               	movf	(___flmul@a+3)^0,w,c
  7704   001DC8  0B80               	andlw	128
  7705   001DCA  1A34               	xorwf	___flmul@sign^0,f,c
  7706   001DCC  502F               	movf	(___flmul@a+3)^0,w,c
  7707   001DCE  242F               	addwf	(___flmul@a+3)^0,w,c
  7708   001DD0  6E35               	movwf	___flmul@aexp^0,c
  7709   001DD2  AE2E               	btfss	(___flmul@a+2)^0,7,c
  7710   001DD4  EFEE  F00E         	goto	u5871
  7711   001DD8  EFF0  F00E         	goto	u5870
  7712   001DDC                     u5871:
  7713   001DDC  EFF1  F00E         	goto	l4261
  7714   001DE0                     u5870:
  7715   001DE0  8035               	bsf	___flmul@aexp^0,0,c
  7716   001DE2                     l4261:
  7717   001DE2  5035               	movf	___flmul@aexp^0,w,c
  7718   001DE4  B4D8               	btfsc	status,2,c
  7719   001DE6  EFF7  F00E         	goto	u5881
  7720   001DEA  EFF9  F00E         	goto	u5880
  7721   001DEE                     u5881:
  7722   001DEE  EF0C  F00F         	goto	l4269
  7723   001DF2                     u5880:
  7724   001DF2  2835               	incf	___flmul@aexp^0,w,c
  7725   001DF4  A4D8               	btfss	status,2,c
  7726   001DF6  EFFF  F00E         	goto	u5891
  7727   001DFA  EF01  F00F         	goto	u5890
  7728   001DFE                     u5891:
  7729   001DFE  EF09  F00F         	goto	l4267
  7730   001E02                     u5890:
  7731   001E02  0E00               	movlw	0
  7732   001E04  6E2C               	movwf	___flmul@a^0,c
  7733   001E06  0E00               	movlw	0
  7734   001E08  6E2D               	movwf	(___flmul@a+1)^0,c
  7735   001E0A  0E00               	movlw	0
  7736   001E0C  6E2E               	movwf	(___flmul@a+2)^0,c
  7737   001E0E  0E00               	movlw	0
  7738   001E10  6E2F               	movwf	(___flmul@a+3)^0,c
  7739   001E12                     l4267:
  7740   001E12  8E2E               	bsf	(___flmul@a+2)^0,7,c
  7741   001E14  EF14  F00F         	goto	l736
  7742   001E18                     l4269:
  7743   001E18  0E00               	movlw	0
  7744   001E1A  6E2C               	movwf	___flmul@a^0,c
  7745   001E1C  0E00               	movlw	0
  7746   001E1E  6E2D               	movwf	(___flmul@a+1)^0,c
  7747   001E20  0E00               	movlw	0
  7748   001E22  6E2E               	movwf	(___flmul@a+2)^0,c
  7749   001E24  0E00               	movlw	0
  7750   001E26  6E2F               	movwf	(___flmul@a+3)^0,c
  7751   001E28                     l736:
  7752   001E28  5035               	movf	___flmul@aexp^0,w,c
  7753   001E2A  B4D8               	btfsc	status,2,c
  7754   001E2C  EF1A  F00F         	goto	u5901
  7755   001E30  EF1C  F00F         	goto	u5900
  7756   001E34                     u5901:
  7757   001E34  EF24  F00F         	goto	l4273
  7758   001E38                     u5900:
  7759   001E38  503A               	movf	___flmul@bexp^0,w,c
  7760   001E3A  A4D8               	btfss	status,2,c
  7761   001E3C  EF22  F00F         	goto	u5911
  7762   001E40  EF24  F00F         	goto	u5910
  7763   001E44                     u5911:
  7764   001E44  EF2E  F00F         	goto	l4277
  7765   001E48                     u5910:
  7766   001E48                     l4273:
  7767   001E48  0E00               	movlw	0
  7768   001E4A  6E28               	movwf	?___flmul^0,c
  7769   001E4C  0E00               	movlw	0
  7770   001E4E  6E29               	movwf	(?___flmul+1)^0,c
  7771   001E50  0E00               	movlw	0
  7772   001E52  6E2A               	movwf	(?___flmul+2)^0,c
  7773   001E54  0E00               	movlw	0
  7774   001E56  6E2B               	movwf	(?___flmul+3)^0,c
  7775   001E58  EFC4  F010         	goto	l740
  7776   001E5C                     l4277:
  7777   001E5C  502E               	movf	(___flmul@a+2)^0,w,c
  7778   001E5E  0228               	mulwf	___flmul@b^0,c
  7779   001E60  CFF3 F03F          	movff	prodl,___flmul@temp
  7780   001E64  CFF4 F040          	movff	prodh,___flmul@temp+1
  7781   001E68  503F               	movf	___flmul@temp^0,w,c
  7782   001E6A  6E36               	movwf	___flmul@grs^0,c
  7783   001E6C  6A37               	clrf	(___flmul@grs+1)^0,c
  7784   001E6E  6A38               	clrf	(___flmul@grs+2)^0,c
  7785   001E70  6A39               	clrf	(___flmul@grs+3)^0,c
  7786   001E72  5040               	movf	(___flmul@temp+1)^0,w,c
  7787   001E74  6E3B               	movwf	___flmul@prod^0,c
  7788   001E76  6A3C               	clrf	(___flmul@prod+1)^0,c
  7789   001E78  6A3D               	clrf	(___flmul@prod+2)^0,c
  7790   001E7A  6A3E               	clrf	(___flmul@prod+3)^0,c
  7791   001E7C  502D               	movf	(___flmul@a+1)^0,w,c
  7792   001E7E  0229               	mulwf	(___flmul@b+1)^0,c
  7793   001E80  CFF3 F03F          	movff	prodl,___flmul@temp
  7794   001E84  CFF4 F040          	movff	prodh,___flmul@temp+1
  7795   001E88  503F               	movf	___flmul@temp^0,w,c
  7796   001E8A  2636               	addwf	___flmul@grs^0,f,c
  7797   001E8C  0E00               	movlw	0
  7798   001E8E  2237               	addwfc	(___flmul@grs+1)^0,f,c
  7799   001E90  2238               	addwfc	(___flmul@grs+2)^0,f,c
  7800   001E92  2239               	addwfc	(___flmul@grs+3)^0,f,c
  7801   001E94  5040               	movf	(___flmul@temp+1)^0,w,c
  7802   001E96  263B               	addwf	___flmul@prod^0,f,c
  7803   001E98  0E00               	movlw	0
  7804   001E9A  223C               	addwfc	(___flmul@prod+1)^0,f,c
  7805   001E9C  223D               	addwfc	(___flmul@prod+2)^0,f,c
  7806   001E9E  223E               	addwfc	(___flmul@prod+3)^0,f,c
  7807   001EA0  502C               	movf	___flmul@a^0,w,c
  7808   001EA2  022A               	mulwf	(___flmul@b+2)^0,c
  7809   001EA4  CFF3 F03F          	movff	prodl,___flmul@temp
  7810   001EA8  CFF4 F040          	movff	prodh,___flmul@temp+1
  7811   001EAC  503F               	movf	___flmul@temp^0,w,c
  7812   001EAE  2636               	addwf	___flmul@grs^0,f,c
  7813   001EB0  0E00               	movlw	0
  7814   001EB2  2237               	addwfc	(___flmul@grs+1)^0,f,c
  7815   001EB4  2238               	addwfc	(___flmul@grs+2)^0,f,c
  7816   001EB6  2239               	addwfc	(___flmul@grs+3)^0,f,c
  7817   001EB8  5040               	movf	(___flmul@temp+1)^0,w,c
  7818   001EBA  263B               	addwf	___flmul@prod^0,f,c
  7819   001EBC  0E00               	movlw	0
  7820   001EBE  223C               	addwfc	(___flmul@prod+1)^0,f,c
  7821   001EC0  223D               	addwfc	(___flmul@prod+2)^0,f,c
  7822   001EC2  223E               	addwfc	(___flmul@prod+3)^0,f,c
  7823   001EC4  C038  F039         	movff	___flmul@grs+2,___flmul@grs+3
  7824   001EC8  C037  F038         	movff	___flmul@grs+1,___flmul@grs+2
  7825   001ECC  C036  F037         	movff	___flmul@grs,___flmul@grs+1
  7826   001ED0  6A36               	clrf	___flmul@grs^0,c
  7827   001ED2  502C               	movf	___flmul@a^0,w,c
  7828   001ED4  0229               	mulwf	(___flmul@b+1)^0,c
  7829   001ED6  CFF3 F03F          	movff	prodl,___flmul@temp
  7830   001EDA  CFF4 F040          	movff	prodh,___flmul@temp+1
  7831   001EDE  503F               	movf	___flmul@temp^0,w,c
  7832   001EE0  2636               	addwf	___flmul@grs^0,f,c
  7833   001EE2  5040               	movf	(___flmul@temp+1)^0,w,c
  7834   001EE4  2237               	addwfc	(___flmul@grs+1)^0,f,c
  7835   001EE6  0E00               	movlw	0
  7836   001EE8  2238               	addwfc	(___flmul@grs+2)^0,f,c
  7837   001EEA  0E00               	movlw	0
  7838   001EEC  2239               	addwfc	(___flmul@grs+3)^0,f,c
  7839   001EEE  502D               	movf	(___flmul@a+1)^0,w,c
  7840   001EF0  0228               	mulwf	___flmul@b^0,c
  7841   001EF2  CFF3 F03F          	movff	prodl,___flmul@temp
  7842   001EF6  CFF4 F040          	movff	prodh,___flmul@temp+1
  7843   001EFA  503F               	movf	___flmul@temp^0,w,c
  7844   001EFC  2636               	addwf	___flmul@grs^0,f,c
  7845   001EFE  5040               	movf	(___flmul@temp+1)^0,w,c
  7846   001F00  2237               	addwfc	(___flmul@grs+1)^0,f,c
  7847   001F02  0E00               	movlw	0
  7848   001F04  2238               	addwfc	(___flmul@grs+2)^0,f,c
  7849   001F06  0E00               	movlw	0
  7850   001F08  2239               	addwfc	(___flmul@grs+3)^0,f,c
  7851   001F0A  C038  F039         	movff	___flmul@grs+2,___flmul@grs+3
  7852   001F0E  C037  F038         	movff	___flmul@grs+1,___flmul@grs+2
  7853   001F12  C036  F037         	movff	___flmul@grs,___flmul@grs+1
  7854   001F16  6A36               	clrf	___flmul@grs^0,c
  7855   001F18  502C               	movf	___flmul@a^0,w,c
  7856   001F1A  0228               	mulwf	___flmul@b^0,c
  7857   001F1C  CFF3 F03F          	movff	prodl,___flmul@temp
  7858   001F20  CFF4 F040          	movff	prodh,___flmul@temp+1
  7859   001F24  503F               	movf	___flmul@temp^0,w,c
  7860   001F26  2636               	addwf	___flmul@grs^0,f,c
  7861   001F28  5040               	movf	(___flmul@temp+1)^0,w,c
  7862   001F2A  2237               	addwfc	(___flmul@grs+1)^0,f,c
  7863   001F2C  0E00               	movlw	0
  7864   001F2E  2238               	addwfc	(___flmul@grs+2)^0,f,c
  7865   001F30  0E00               	movlw	0
  7866   001F32  2239               	addwfc	(___flmul@grs+3)^0,f,c
  7867   001F34  502E               	movf	(___flmul@a+2)^0,w,c
  7868   001F36  0229               	mulwf	(___flmul@b+1)^0,c
  7869   001F38  CFF3 F03F          	movff	prodl,___flmul@temp
  7870   001F3C  CFF4 F040          	movff	prodh,___flmul@temp+1
  7871   001F40  503F               	movf	___flmul@temp^0,w,c
  7872   001F42  263B               	addwf	___flmul@prod^0,f,c
  7873   001F44  5040               	movf	(___flmul@temp+1)^0,w,c
  7874   001F46  223C               	addwfc	(___flmul@prod+1)^0,f,c
  7875   001F48  0E00               	movlw	0
  7876   001F4A  223D               	addwfc	(___flmul@prod+2)^0,f,c
  7877   001F4C  0E00               	movlw	0
  7878   001F4E  223E               	addwfc	(___flmul@prod+3)^0,f,c
  7879   001F50  502D               	movf	(___flmul@a+1)^0,w,c
  7880   001F52  022A               	mulwf	(___flmul@b+2)^0,c
  7881   001F54  CFF3 F03F          	movff	prodl,___flmul@temp
  7882   001F58  CFF4 F040          	movff	prodh,___flmul@temp+1
  7883   001F5C  503F               	movf	___flmul@temp^0,w,c
  7884   001F5E  263B               	addwf	___flmul@prod^0,f,c
  7885   001F60  5040               	movf	(___flmul@temp+1)^0,w,c
  7886   001F62  223C               	addwfc	(___flmul@prod+1)^0,f,c
  7887   001F64  0E00               	movlw	0
  7888   001F66  223D               	addwfc	(___flmul@prod+2)^0,f,c
  7889   001F68  0E00               	movlw	0
  7890   001F6A  223E               	addwfc	(___flmul@prod+3)^0,f,c
  7891   001F6C  502E               	movf	(___flmul@a+2)^0,w,c
  7892   001F6E  022A               	mulwf	(___flmul@b+2)^0,c
  7893   001F70  CFF3 F03F          	movff	prodl,___flmul@temp
  7894   001F74  CFF4 F040          	movff	prodh,___flmul@temp+1
  7895   001F78  503F               	movf	___flmul@temp^0,w,c
  7896   001F7A  6E30               	movwf	??___flmul^0,c
  7897   001F7C  5040               	movf	(___flmul@temp+1)^0,w,c
  7898   001F7E  6E31               	movwf	(??___flmul+1)^0,c
  7899   001F80  6A32               	clrf	(??___flmul+2)^0,c
  7900   001F82  6A33               	clrf	(??___flmul+3)^0,c
  7901   001F84  C032  F033         	movff	??___flmul+2,??___flmul+3
  7902   001F88  C031  F032         	movff	??___flmul+1,??___flmul+2
  7903   001F8C  C030  F031         	movff	??___flmul,??___flmul+1
  7904   001F90  6A30               	clrf	??___flmul^0,c
  7905   001F92  5030               	movf	??___flmul^0,w,c
  7906   001F94  263B               	addwf	___flmul@prod^0,f,c
  7907   001F96  5031               	movf	(??___flmul+1)^0,w,c
  7908   001F98  223C               	addwfc	(___flmul@prod+1)^0,f,c
  7909   001F9A  5032               	movf	(??___flmul+2)^0,w,c
  7910   001F9C  223D               	addwfc	(___flmul@prod+2)^0,f,c
  7911   001F9E  5033               	movf	(??___flmul+3)^0,w,c
  7912   001FA0  223E               	addwfc	(___flmul@prod+3)^0,f,c
  7913   001FA2  C036  F030         	movff	___flmul@grs,??___flmul
  7914   001FA6  C037  F031         	movff	___flmul@grs+1,??___flmul+1
  7915   001FAA  C038  F032         	movff	___flmul@grs+2,??___flmul+2
  7916   001FAE  C039  F033         	movff	___flmul@grs+3,??___flmul+3
  7917   001FB2  0E19               	movlw	25
  7918   001FB4  EFE1  F00F         	goto	u5920
  7919   001FB8                     u5925:
  7920   001FB8  90D8               	bcf	status,0,c
  7921   001FBA  3233               	rrcf	(??___flmul+3)^0,f,c
  7922   001FBC  3232               	rrcf	(??___flmul+2)^0,f,c
  7923   001FBE  3231               	rrcf	(??___flmul+1)^0,f,c
  7924   001FC0  3230               	rrcf	??___flmul^0,f,c
  7925   001FC2                     u5920:
  7926   001FC2  2EE8               	decfsz	wreg,f,c
  7927   001FC4  EFDC  F00F         	goto	u5925
  7928   001FC8  5030               	movf	??___flmul^0,w,c
  7929   001FCA  263B               	addwf	___flmul@prod^0,f,c
  7930   001FCC  5031               	movf	(??___flmul+1)^0,w,c
  7931   001FCE  223C               	addwfc	(___flmul@prod+1)^0,f,c
  7932   001FD0  5032               	movf	(??___flmul+2)^0,w,c
  7933   001FD2  223D               	addwfc	(___flmul@prod+2)^0,f,c
  7934   001FD4  5033               	movf	(??___flmul+3)^0,w,c
  7935   001FD6  223E               	addwfc	(___flmul@prod+3)^0,f,c
  7936   001FD8  C038  F039         	movff	___flmul@grs+2,___flmul@grs+3
  7937   001FDC  C037  F038         	movff	___flmul@grs+1,___flmul@grs+2
  7938   001FE0  C036  F037         	movff	___flmul@grs,___flmul@grs+1
  7939   001FE4  6A36               	clrf	___flmul@grs^0,c
  7940   001FE6  5035               	movf	___flmul@aexp^0,w,c
  7941   001FE8  C03A  F030         	movff	___flmul@bexp,??___flmul
  7942   001FEC  6A31               	clrf	(??___flmul+1)^0,c
  7943   001FEE  2630               	addwf	??___flmul^0,f,c
  7944   001FF0  0E00               	movlw	0
  7945   001FF2  2231               	addwfc	(??___flmul+1)^0,f,c
  7946   001FF4  0E82               	movlw	130
  7947   001FF6  2430               	addwf	??___flmul^0,w,c
  7948   001FF8  6E3F               	movwf	___flmul@temp^0,c
  7949   001FFA  0EFF               	movlw	255
  7950   001FFC  2031               	addwfc	(??___flmul+1)^0,w,c
  7951   001FFE  6E40               	movwf	(___flmul@temp+1)^0,c
  7952   002000  EF17  F010         	goto	l4325
  7953   002004                     l4319:
  7954   002004  90D8               	bcf	status,0,c
  7955   002006  363B               	rlcf	___flmul@prod^0,f,c
  7956   002008  363C               	rlcf	(___flmul@prod+1)^0,f,c
  7957   00200A  363D               	rlcf	(___flmul@prod+2)^0,f,c
  7958   00200C  363E               	rlcf	(___flmul@prod+3)^0,f,c
  7959   00200E  AE39               	btfss	(___flmul@grs+3)^0,7,c
  7960   002010  EF0C  F010         	goto	u5931
  7961   002014  EF0E  F010         	goto	u5930
  7962   002018                     u5931:
  7963   002018  EF0F  F010         	goto	l743
  7964   00201C                     u5930:
  7965   00201C  803B               	bsf	___flmul@prod^0,0,c
  7966   00201E                     l743:
  7967   00201E  90D8               	bcf	status,0,c
  7968   002020  3636               	rlcf	___flmul@grs^0,f,c
  7969   002022  3637               	rlcf	(___flmul@grs+1)^0,f,c
  7970   002024  3638               	rlcf	(___flmul@grs+2)^0,f,c
  7971   002026  3639               	rlcf	(___flmul@grs+3)^0,f,c
  7972   002028  063F               	decf	___flmul@temp^0,f,c
  7973   00202A  A0D8               	btfss	status,0,c
  7974   00202C  0640               	decf	(___flmul@temp+1)^0,f,c
  7975   00202E                     l4325:
  7976   00202E  AE3D               	btfss	(___flmul@prod+2)^0,7,c
  7977   002030  EF1C  F010         	goto	u5941
  7978   002034  EF1E  F010         	goto	u5940
  7979   002038                     u5941:
  7980   002038  EF02  F010         	goto	l4319
  7981   00203C                     u5940:
  7982   00203C  6A35               	clrf	___flmul@aexp^0,c
  7983   00203E  AE39               	btfss	(___flmul@grs+3)^0,7,c
  7984   002040  EF24  F010         	goto	u5951
  7985   002044  EF26  F010         	goto	u5950
  7986   002048                     u5951:
  7987   002048  EF4A  F010         	goto	l745
  7988   00204C                     u5950:
  7989   00204C  0EFF               	movlw	255
  7990   00204E  1436               	andwf	___flmul@grs^0,w,c
  7991   002050  6E30               	movwf	??___flmul^0,c
  7992   002052  0EFF               	movlw	255
  7993   002054  1437               	andwf	(___flmul@grs+1)^0,w,c
  7994   002056  6E31               	movwf	(??___flmul+1)^0,c
  7995   002058  0EFF               	movlw	255
  7996   00205A  1438               	andwf	(___flmul@grs+2)^0,w,c
  7997   00205C  6E32               	movwf	(??___flmul+2)^0,c
  7998   00205E  0E7F               	movlw	127
  7999   002060  1439               	andwf	(___flmul@grs+3)^0,w,c
  8000   002062  6E33               	movwf	(??___flmul+3)^0,c
  8001   002064  5030               	movf	??___flmul^0,w,c
  8002   002066  1031               	iorwf	(??___flmul+1)^0,w,c
  8003   002068  1032               	iorwf	(??___flmul+2)^0,w,c
  8004   00206A  1033               	iorwf	(??___flmul+3)^0,w,c
  8005   00206C  B4D8               	btfsc	status,2,c
  8006   00206E  EF3B  F010         	goto	u5961
  8007   002072  EF3D  F010         	goto	u5960
  8008   002076                     u5961:
  8009   002076  EF41  F010         	goto	l746
  8010   00207A                     u5960:
  8011   00207A                     l4329:
  8012   00207A  0E01               	movlw	1
  8013   00207C  6E35               	movwf	___flmul@aexp^0,c
  8014   00207E  EF4A  F010         	goto	l745
  8015   002082                     l746:
  8016   002082  A03B               	btfss	___flmul@prod^0,0,c
  8017   002084  EF46  F010         	goto	u5971
  8018   002088  EF48  F010         	goto	u5970
  8019   00208C                     u5971:
  8020   00208C  EF4A  F010         	goto	l745
  8021   002090                     u5970:
  8022   002090  EF3D  F010         	goto	l4329
  8023   002094                     l745:
  8024   002094  5035               	movf	___flmul@aexp^0,w,c
  8025   002096  B4D8               	btfsc	status,2,c
  8026   002098  EF50  F010         	goto	u5981
  8027   00209C  EF52  F010         	goto	u5980
  8028   0020A0                     u5981:
  8029   0020A0  EF76  F010         	goto	l4341
  8030   0020A4                     u5980:
  8031   0020A4  0E01               	movlw	1
  8032   0020A6  263B               	addwf	___flmul@prod^0,f,c
  8033   0020A8  0E00               	movlw	0
  8034   0020AA  223C               	addwfc	(___flmul@prod+1)^0,f,c
  8035   0020AC  223D               	addwfc	(___flmul@prod+2)^0,f,c
  8036   0020AE  223E               	addwfc	(___flmul@prod+3)^0,f,c
  8037   0020B0  A03E               	btfss	(___flmul@prod+3)^0,0,c
  8038   0020B2  EF5D  F010         	goto	u5991
  8039   0020B6  EF5F  F010         	goto	u5990
  8040   0020BA                     u5991:
  8041   0020BA  EF76  F010         	goto	l4341
  8042   0020BE                     u5990:
  8043   0020BE  C03B  F030         	movff	___flmul@prod,??___flmul
  8044   0020C2  C03C  F031         	movff	___flmul@prod+1,??___flmul+1
  8045   0020C6  C03D  F032         	movff	___flmul@prod+2,??___flmul+2
  8046   0020CA  C03E  F033         	movff	___flmul@prod+3,??___flmul+3
  8047   0020CE  3433               	rlcf	(??___flmul+3)^0,w,c
  8048   0020D0  3233               	rrcf	(??___flmul+3)^0,f,c
  8049   0020D2  3232               	rrcf	(??___flmul+2)^0,f,c
  8050   0020D4  3231               	rrcf	(??___flmul+1)^0,f,c
  8051   0020D6  3230               	rrcf	??___flmul^0,f,c
  8052   0020D8  C030  F03B         	movff	??___flmul,___flmul@prod
  8053   0020DC  C031  F03C         	movff	??___flmul+1,___flmul@prod+1
  8054   0020E0  C032  F03D         	movff	??___flmul+2,___flmul@prod+2
  8055   0020E4  C033  F03E         	movff	??___flmul+3,___flmul@prod+3
  8056   0020E8  4A3F               	infsnz	___flmul@temp^0,f,c
  8057   0020EA  2A40               	incf	(___flmul@temp+1)^0,f,c
  8058   0020EC                     l4341:
  8059   0020EC  BE40               	btfsc	(___flmul@temp+1)^0,7,c
  8060   0020EE  EF81  F010         	goto	u6001
  8061   0020F2  5040               	movf	(___flmul@temp+1)^0,w,c
  8062   0020F4  E108               	bnz	u6000
  8063   0020F6  283F               	incf	___flmul@temp^0,w,c
  8064   0020F8  A0D8               	btfss	status,0,c
  8065   0020FA  EF81  F010         	goto	u6001
  8066   0020FE  EF83  F010         	goto	u6000
  8067   002102                     u6001:
  8068   002102  EF8D  F010         	goto	l4345
  8069   002106                     u6000:
  8070   002106  0E00               	movlw	0
  8071   002108  6E3B               	movwf	___flmul@prod^0,c
  8072   00210A  0E00               	movlw	0
  8073   00210C  6E3C               	movwf	(___flmul@prod+1)^0,c
  8074   00210E  0E80               	movlw	128
  8075   002110  6E3D               	movwf	(___flmul@prod+2)^0,c
  8076   002112  0E7F               	movlw	127
  8077   002114  6E3E               	movwf	(___flmul@prod+3)^0,c
  8078   002116  EFBA  F010         	goto	l4359
  8079   00211A                     l4345:
  8080   00211A  BE40               	btfsc	(___flmul@temp+1)^0,7,c
  8081   00211C  EF9A  F010         	goto	u6010
  8082   002120  5040               	movf	(___flmul@temp+1)^0,w,c
  8083   002122  E106               	bnz	u6011
  8084   002124  043F               	decf	___flmul@temp^0,w,c
  8085   002126  B0D8               	btfsc	status,0,c
  8086   002128  EF98  F010         	goto	u6011
  8087   00212C  EF9A  F010         	goto	u6010
  8088   002130                     u6011:
  8089   002130  EFA5  F010         	goto	l753
  8090   002134                     u6010:
  8091   002134  0E00               	movlw	0
  8092   002136  6E3B               	movwf	___flmul@prod^0,c
  8093   002138  0E00               	movlw	0
  8094   00213A  6E3C               	movwf	(___flmul@prod+1)^0,c
  8095   00213C  0E00               	movlw	0
  8096   00213E  6E3D               	movwf	(___flmul@prod+2)^0,c
  8097   002140  0E00               	movlw	0
  8098   002142  6E3E               	movwf	(___flmul@prod+3)^0,c
  8099   002144  6A34               	clrf	___flmul@sign^0,c
  8100   002146  EFBA  F010         	goto	l4359
  8101   00214A                     l753:
  8102   00214A  C03F  F03A         	movff	___flmul@temp,___flmul@bexp
  8103   00214E  0EFF               	movlw	255
  8104   002150  163B               	andwf	___flmul@prod^0,f,c
  8105   002152  0EFF               	movlw	255
  8106   002154  163C               	andwf	(___flmul@prod+1)^0,f,c
  8107   002156  0E7F               	movlw	127
  8108   002158  163D               	andwf	(___flmul@prod+2)^0,f,c
  8109   00215A  0E00               	movlw	0
  8110   00215C  163E               	andwf	(___flmul@prod+3)^0,f,c
  8111   00215E  A03A               	btfss	___flmul@bexp^0,0,c
  8112   002160  EFB4  F010         	goto	u6021
  8113   002164  EFB6  F010         	goto	u6020
  8114   002168                     u6021:
  8115   002168  EFB7  F010         	goto	l4357
  8116   00216C                     u6020:
  8117   00216C  8E3D               	bsf	(___flmul@prod+2)^0,7,c
  8118   00216E                     l4357:
  8119   00216E  90D8               	bcf	status,0,c
  8120   002170  303A               	rrcf	___flmul@bexp^0,w,c
  8121   002172  6E3E               	movwf	(___flmul@prod+3)^0,c
  8122   002174                     l4359:
  8123   002174  5034               	movf	___flmul@sign^0,w,c
  8124   002176  123E               	iorwf	(___flmul@prod+3)^0,f,c
  8125   002178  C03B  F028         	movff	___flmul@prod,?___flmul
  8126   00217C  C03C  F029         	movff	___flmul@prod+1,?___flmul+1
  8127   002180  C03D  F02A         	movff	___flmul@prod+2,?___flmul+2
  8128   002184  C03E  F02B         	movff	___flmul@prod+3,?___flmul+3
  8129   002188                     l740:
  8130   002188  0012               	return		;funcret
  8131   00218A                     __end_of___flmul:
  8132                           	callstack 0
  8133                           
  8134 ;; *************** function ___fldiv *****************
  8135 ;; Defined at:
  8136 ;;		line 11 in file "C:\Program Files\Microchip\xc8\v3.00\pic\sources\c99\common\sprcdiv.c"
  8137 ;; Parameters:    Size  Location     Type
  8138 ;;  b               4   14[COMRAM] unsigned char 
  8139 ;;  a               4   18[COMRAM] unsigned char 
  8140 ;; Auto vars:     Size  Location     Type
  8141 ;;  grs             4   33[COMRAM] unsigned long 
  8142 ;;  rem             4   26[COMRAM] unsigned long 
  8143 ;;  new_exp         2   31[COMRAM] short 
  8144 ;;  aexp            1   38[COMRAM] unsigned char 
  8145 ;;  bexp            1   37[COMRAM] unsigned char 
  8146 ;;  sign            1   30[COMRAM] unsigned char 
  8147 ;; Return value:  Size  Location     Type
  8148 ;;                  4   14[COMRAM] unsigned char 
  8149 ;; Registers used:
  8150 ;;		wreg, status,2, status,0
  8151 ;; Tracked objects:
  8152 ;;		On entry : 0/0
  8153 ;;		On exit  : 0/0
  8154 ;;		Unchanged: 0/0
  8155 ;; Data sizes:     COMRAM   BANK0   BANK1   BANK2   BANK3   BANK4   BANK5   BANK6   BANK7
  8156 ;;      Params:         8       0       0       0       0       0       0       0       0
  8157 ;;      Locals:        13       0       0       0       0       0       0       0       0
  8158 ;;      Temps:          4       0       0       0       0       0       0       0       0
  8159 ;;      Totals:        25       0       0       0       0       0       0       0       0
  8160 ;;Total ram usage:       25 bytes
  8161 ;; Hardware stack levels used: 1
  8162 ;; Hardware stack levels required when called: 1
  8163 ;; This function calls:
  8164 ;;		Nothing
  8165 ;; This function is called by:
  8166 ;;		_calculaTemperaturaSimples
  8167 ;;		_efgtoa
  8168 ;; This function uses a non-reentrant model
  8169 ;;
  8170                           
  8171                           	psect	text30
  8172   00218A                     __ptext30:
  8173                           	callstack 0
  8174   00218A                     ___fldiv:
  8175                           	callstack 25
  8176   00218A  5012               	movf	(___fldiv@b+3)^0,w,c
  8177   00218C  0B80               	andlw	128
  8178   00218E  6E1F               	movwf	___fldiv@sign^0,c
  8179   002190  5012               	movf	(___fldiv@b+3)^0,w,c
  8180   002192  2412               	addwf	(___fldiv@b+3)^0,w,c
  8181   002194  6E26               	movwf	___fldiv@bexp^0,c
  8182   002196  AE11               	btfss	(___fldiv@b+2)^0,7,c
  8183   002198  EFD0  F010         	goto	u5611
  8184   00219C  EFD2  F010         	goto	u5610
  8185   0021A0                     u5611:
  8186   0021A0  EFD3  F010         	goto	l4107
  8187   0021A4                     u5610:
  8188   0021A4  8026               	bsf	___fldiv@bexp^0,0,c
  8189   0021A6                     l4107:
  8190   0021A6  5026               	movf	___fldiv@bexp^0,w,c
  8191   0021A8  B4D8               	btfsc	status,2,c
  8192   0021AA  EFD9  F010         	goto	u5621
  8193   0021AE  EFDB  F010         	goto	u5620
  8194   0021B2                     u5621:
  8195   0021B2  EFEF  F010         	goto	l4117
  8196   0021B6                     u5620:
  8197   0021B6  2826               	incf	___fldiv@bexp^0,w,c
  8198   0021B8  A4D8               	btfss	status,2,c
  8199   0021BA  EFE1  F010         	goto	u5631
  8200   0021BE  EFE3  F010         	goto	u5630
  8201   0021C2                     u5631:
  8202   0021C2  EFEB  F010         	goto	l4113
  8203   0021C6                     u5630:
  8204   0021C6  0E00               	movlw	0
  8205   0021C8  6E0F               	movwf	___fldiv@b^0,c
  8206   0021CA  0E00               	movlw	0
  8207   0021CC  6E10               	movwf	(___fldiv@b+1)^0,c
  8208   0021CE  0E00               	movlw	0
  8209   0021D0  6E11               	movwf	(___fldiv@b+2)^0,c
  8210   0021D2  0E00               	movlw	0
  8211   0021D4  6E12               	movwf	(___fldiv@b+3)^0,c
  8212   0021D6                     l4113:
  8213   0021D6  8E11               	bsf	(___fldiv@b+2)^0,7,c
  8214   0021D8  6A12               	clrf	(___fldiv@b+3)^0,c
  8215   0021DA  EFF7  F010         	goto	l4119
  8216   0021DE                     l4117:
  8217   0021DE  0E00               	movlw	0
  8218   0021E0  6E0F               	movwf	___fldiv@b^0,c
  8219   0021E2  0E00               	movlw	0
  8220   0021E4  6E10               	movwf	(___fldiv@b+1)^0,c
  8221   0021E6  0E00               	movlw	0
  8222   0021E8  6E11               	movwf	(___fldiv@b+2)^0,c
  8223   0021EA  0E00               	movlw	0
  8224   0021EC  6E12               	movwf	(___fldiv@b+3)^0,c
  8225   0021EE                     l4119:
  8226   0021EE  5016               	movf	(___fldiv@a+3)^0,w,c
  8227   0021F0  0B80               	andlw	128
  8228   0021F2  1A1F               	xorwf	___fldiv@sign^0,f,c
  8229   0021F4  5016               	movf	(___fldiv@a+3)^0,w,c
  8230   0021F6  2416               	addwf	(___fldiv@a+3)^0,w,c
  8231   0021F8  6E27               	movwf	___fldiv@aexp^0,c
  8232   0021FA  AE15               	btfss	(___fldiv@a+2)^0,7,c
  8233   0021FC  EF02  F011         	goto	u5641
  8234   002200  EF04  F011         	goto	u5640
  8235   002204                     u5641:
  8236   002204  EF05  F011         	goto	l4127
  8237   002208                     u5640:
  8238   002208  8027               	bsf	___fldiv@aexp^0,0,c
  8239   00220A                     l4127:
  8240   00220A  5027               	movf	___fldiv@aexp^0,w,c
  8241   00220C  B4D8               	btfsc	status,2,c
  8242   00220E  EF0B  F011         	goto	u5651
  8243   002212  EF0D  F011         	goto	u5650
  8244   002216                     u5651:
  8245   002216  EF21  F011         	goto	l4137
  8246   00221A                     u5650:
  8247   00221A  2827               	incf	___fldiv@aexp^0,w,c
  8248   00221C  A4D8               	btfss	status,2,c
  8249   00221E  EF13  F011         	goto	u5661
  8250   002222  EF15  F011         	goto	u5660
  8251   002226                     u5661:
  8252   002226  EF1D  F011         	goto	l4133
  8253   00222A                     u5660:
  8254   00222A  0E00               	movlw	0
  8255   00222C  6E13               	movwf	___fldiv@a^0,c
  8256   00222E  0E00               	movlw	0
  8257   002230  6E14               	movwf	(___fldiv@a+1)^0,c
  8258   002232  0E00               	movlw	0
  8259   002234  6E15               	movwf	(___fldiv@a+2)^0,c
  8260   002236  0E00               	movlw	0
  8261   002238  6E16               	movwf	(___fldiv@a+3)^0,c
  8262   00223A                     l4133:
  8263   00223A  8E15               	bsf	(___fldiv@a+2)^0,7,c
  8264   00223C  6A16               	clrf	(___fldiv@a+3)^0,c
  8265   00223E  EF29  F011         	goto	l4139
  8266   002242                     l4137:
  8267   002242  0E00               	movlw	0
  8268   002244  6E13               	movwf	___fldiv@a^0,c
  8269   002246  0E00               	movlw	0
  8270   002248  6E14               	movwf	(___fldiv@a+1)^0,c
  8271   00224A  0E00               	movlw	0
  8272   00224C  6E15               	movwf	(___fldiv@a+2)^0,c
  8273   00224E  0E00               	movlw	0
  8274   002250  6E16               	movwf	(___fldiv@a+3)^0,c
  8275   002252                     l4139:
  8276   002252  5013               	movf	___fldiv@a^0,w,c
  8277   002254  1014               	iorwf	(___fldiv@a+1)^0,w,c
  8278   002256  1015               	iorwf	(___fldiv@a+2)^0,w,c
  8279   002258  1016               	iorwf	(___fldiv@a+3)^0,w,c
  8280   00225A  A4D8               	btfss	status,2,c
  8281   00225C  EF32  F011         	goto	u5671
  8282   002260  EF34  F011         	goto	u5670
  8283   002264                     u5671:
  8284   002264  EF4C  F011         	goto	l4151
  8285   002268                     u5670:
  8286   002268  0E00               	movlw	0
  8287   00226A  6E0F               	movwf	___fldiv@b^0,c
  8288   00226C  0E00               	movlw	0
  8289   00226E  6E10               	movwf	(___fldiv@b+1)^0,c
  8290   002270  0E00               	movlw	0
  8291   002272  6E11               	movwf	(___fldiv@b+2)^0,c
  8292   002274  0E00               	movlw	0
  8293   002276  6E12               	movwf	(___fldiv@b+3)^0,c
  8294   002278  0E80               	movlw	128
  8295   00227A  1211               	iorwf	(___fldiv@b+2)^0,f,c
  8296   00227C  0E7F               	movlw	127
  8297   00227E  1212               	iorwf	(___fldiv@b+3)^0,f,c
  8298   002280                     l4145:
  8299   002280  501F               	movf	___fldiv@sign^0,w,c
  8300   002282  1212               	iorwf	(___fldiv@b+3)^0,f,c
  8301   002284  C00F  F00F         	movff	___fldiv@b,?___fldiv
  8302   002288  C010  F010         	movff	___fldiv@b+1,?___fldiv+1
  8303   00228C  C011  F011         	movff	___fldiv@b+2,?___fldiv+2
  8304   002290  C012  F012         	movff	___fldiv@b+3,?___fldiv+3
  8305   002294  EF8C  F012         	goto	l704
  8306   002298                     l4151:
  8307   002298  5026               	movf	___fldiv@bexp^0,w,c
  8308   00229A  A4D8               	btfss	status,2,c
  8309   00229C  EF52  F011         	goto	u5681
  8310   0022A0  EF54  F011         	goto	u5680
  8311   0022A4                     u5681:
  8312   0022A4  EF5E  F011         	goto	l4159
  8313   0022A8                     u5680:
  8314   0022A8  0E00               	movlw	0
  8315   0022AA  6E0F               	movwf	?___fldiv^0,c
  8316   0022AC  0E00               	movlw	0
  8317   0022AE  6E10               	movwf	(?___fldiv+1)^0,c
  8318   0022B0  0E00               	movlw	0
  8319   0022B2  6E11               	movwf	(?___fldiv+2)^0,c
  8320   0022B4  0E00               	movlw	0
  8321   0022B6  6E12               	movwf	(?___fldiv+3)^0,c
  8322   0022B8  EF8C  F012         	goto	l704
  8323   0022BC                     l4159:
  8324   0022BC  5027               	movf	___fldiv@aexp^0,w,c
  8325   0022BE  C026  F017         	movff	___fldiv@bexp,??___fldiv
  8326   0022C2  6A18               	clrf	(??___fldiv+1)^0,c
  8327   0022C4  5E17               	subwf	??___fldiv^0,f,c
  8328   0022C6  0E00               	movlw	0
  8329   0022C8  5A18               	subwfb	(??___fldiv+1)^0,f,c
  8330   0022CA  0E7F               	movlw	127
  8331   0022CC  2417               	addwf	??___fldiv^0,w,c
  8332   0022CE  6E20               	movwf	___fldiv@new_exp^0,c
  8333   0022D0  0E00               	movlw	0
  8334   0022D2  2018               	addwfc	(??___fldiv+1)^0,w,c
  8335   0022D4  6E21               	movwf	(___fldiv@new_exp+1)^0,c
  8336   0022D6  C00F  F01B         	movff	___fldiv@b,___fldiv@rem
  8337   0022DA  C010  F01C         	movff	___fldiv@b+1,___fldiv@rem+1
  8338   0022DE  C011  F01D         	movff	___fldiv@b+2,___fldiv@rem+2
  8339   0022E2  C012  F01E         	movff	___fldiv@b+3,___fldiv@rem+3
  8340   0022E6  0E00               	movlw	0
  8341   0022E8  6E0F               	movwf	___fldiv@b^0,c
  8342   0022EA  0E00               	movlw	0
  8343   0022EC  6E10               	movwf	(___fldiv@b+1)^0,c
  8344   0022EE  0E00               	movlw	0
  8345   0022F0  6E11               	movwf	(___fldiv@b+2)^0,c
  8346   0022F2  0E00               	movlw	0
  8347   0022F4  6E12               	movwf	(___fldiv@b+3)^0,c
  8348   0022F6  0E00               	movlw	0
  8349   0022F8  6E22               	movwf	___fldiv@grs^0,c
  8350   0022FA  0E00               	movlw	0
  8351   0022FC  6E23               	movwf	(___fldiv@grs+1)^0,c
  8352   0022FE  0E00               	movlw	0
  8353   002300  6E24               	movwf	(___fldiv@grs+2)^0,c
  8354   002302  0E00               	movlw	0
  8355   002304  6E25               	movwf	(___fldiv@grs+3)^0,c
  8356   002306  6A27               	clrf	___fldiv@aexp^0,c
  8357   002308  EFBE  F011         	goto	l706
  8358   00230C                     l4169:
  8359   00230C  5027               	movf	___fldiv@aexp^0,w,c
  8360   00230E  B4D8               	btfsc	status,2,c
  8361   002310  EF8C  F011         	goto	u5691
  8362   002314  EF8E  F011         	goto	u5690
  8363   002318                     u5691:
  8364   002318  EFA5  F011         	goto	l4177
  8365   00231C                     u5690:
  8366   00231C  90D8               	bcf	status,0,c
  8367   00231E  361B               	rlcf	___fldiv@rem^0,f,c
  8368   002320  361C               	rlcf	(___fldiv@rem+1)^0,f,c
  8369   002322  361D               	rlcf	(___fldiv@rem+2)^0,f,c
  8370   002324  361E               	rlcf	(___fldiv@rem+3)^0,f,c
  8371   002326  90D8               	bcf	status,0,c
  8372   002328  360F               	rlcf	___fldiv@b^0,f,c
  8373   00232A  3610               	rlcf	(___fldiv@b+1)^0,f,c
  8374   00232C  3611               	rlcf	(___fldiv@b+2)^0,f,c
  8375   00232E  3612               	rlcf	(___fldiv@b+3)^0,f,c
  8376   002330  AE25               	btfss	(___fldiv@grs+3)^0,7,c
  8377   002332  EF9D  F011         	goto	u5701
  8378   002336  EF9F  F011         	goto	u5700
  8379   00233A                     u5701:
  8380   00233A  EFA0  F011         	goto	l709
  8381   00233E                     u5700:
  8382   00233E  800F               	bsf	___fldiv@b^0,0,c
  8383   002340                     l709:
  8384   002340  90D8               	bcf	status,0,c
  8385   002342  3622               	rlcf	___fldiv@grs^0,f,c
  8386   002344  3623               	rlcf	(___fldiv@grs+1)^0,f,c
  8387   002346  3624               	rlcf	(___fldiv@grs+2)^0,f,c
  8388   002348  3625               	rlcf	(___fldiv@grs+3)^0,f,c
  8389   00234A                     l4177:
  8390   00234A  5013               	movf	___fldiv@a^0,w,c
  8391   00234C  5C1B               	subwf	___fldiv@rem^0,w,c
  8392   00234E  5014               	movf	(___fldiv@a+1)^0,w,c
  8393   002350  581C               	subwfb	(___fldiv@rem+1)^0,w,c
  8394   002352  5015               	movf	(___fldiv@a+2)^0,w,c
  8395   002354  581D               	subwfb	(___fldiv@rem+2)^0,w,c
  8396   002356  5016               	movf	(___fldiv@a+3)^0,w,c
  8397   002358  581E               	subwfb	(___fldiv@rem+3)^0,w,c
  8398   00235A  A0D8               	btfss	status,0,c
  8399   00235C  EFB2  F011         	goto	u5711
  8400   002360  EFB4  F011         	goto	u5710
  8401   002364                     u5711:
  8402   002364  EFBD  F011         	goto	l4183
  8403   002368                     u5710:
  8404   002368  8C25               	bsf	(___fldiv@grs+3)^0,6,c
  8405   00236A  5013               	movf	___fldiv@a^0,w,c
  8406   00236C  5E1B               	subwf	___fldiv@rem^0,f,c
  8407   00236E  5014               	movf	(___fldiv@a+1)^0,w,c
  8408   002370  5A1C               	subwfb	(___fldiv@rem+1)^0,f,c
  8409   002372  5015               	movf	(___fldiv@a+2)^0,w,c
  8410   002374  5A1D               	subwfb	(___fldiv@rem+2)^0,f,c
  8411   002376  5016               	movf	(___fldiv@a+3)^0,w,c
  8412   002378  5A1E               	subwfb	(___fldiv@rem+3)^0,f,c
  8413   00237A                     l4183:
  8414   00237A  2A27               	incf	___fldiv@aexp^0,f,c
  8415   00237C                     l706:
  8416   00237C  0E19               	movlw	25
  8417   00237E  6427               	cpfsgt	___fldiv@aexp^0,c
  8418   002380  EFC4  F011         	goto	u5721
  8419   002384  EFC6  F011         	goto	u5720
  8420   002388                     u5721:
  8421   002388  EF86  F011         	goto	l4169
  8422   00238C                     u5720:
  8423   00238C  501B               	movf	___fldiv@rem^0,w,c
  8424   00238E  101C               	iorwf	(___fldiv@rem+1)^0,w,c
  8425   002390  101D               	iorwf	(___fldiv@rem+2)^0,w,c
  8426   002392  101E               	iorwf	(___fldiv@rem+3)^0,w,c
  8427   002394  B4D8               	btfsc	status,2,c
  8428   002396  EFCF  F011         	goto	u5731
  8429   00239A  EFD1  F011         	goto	u5730
  8430   00239E                     u5731:
  8431   00239E  EFE9  F011         	goto	l4195
  8432   0023A2                     u5730:
  8433   0023A2  8022               	bsf	___fldiv@grs^0,0,c
  8434   0023A4  EFE9  F011         	goto	l4195
  8435   0023A8                     l4189:
  8436   0023A8  90D8               	bcf	status,0,c
  8437   0023AA  360F               	rlcf	___fldiv@b^0,f,c
  8438   0023AC  3610               	rlcf	(___fldiv@b+1)^0,f,c
  8439   0023AE  3611               	rlcf	(___fldiv@b+2)^0,f,c
  8440   0023B0  3612               	rlcf	(___fldiv@b+3)^0,f,c
  8441   0023B2  AE25               	btfss	(___fldiv@grs+3)^0,7,c
  8442   0023B4  EFDE  F011         	goto	u5741
  8443   0023B8  EFE0  F011         	goto	u5740
  8444   0023BC                     u5741:
  8445   0023BC  EFE1  F011         	goto	l715
  8446   0023C0                     u5740:
  8447   0023C0  800F               	bsf	___fldiv@b^0,0,c
  8448   0023C2                     l715:
  8449   0023C2  90D8               	bcf	status,0,c
  8450   0023C4  3622               	rlcf	___fldiv@grs^0,f,c
  8451   0023C6  3623               	rlcf	(___fldiv@grs+1)^0,f,c
  8452   0023C8  3624               	rlcf	(___fldiv@grs+2)^0,f,c
  8453   0023CA  3625               	rlcf	(___fldiv@grs+3)^0,f,c
  8454   0023CC  0620               	decf	___fldiv@new_exp^0,f,c
  8455   0023CE  A0D8               	btfss	status,0,c
  8456   0023D0  0621               	decf	(___fldiv@new_exp+1)^0,f,c
  8457   0023D2                     l4195:
  8458   0023D2  AE11               	btfss	(___fldiv@b+2)^0,7,c
  8459   0023D4  EFEE  F011         	goto	u5751
  8460   0023D8  EFF0  F011         	goto	u5750
  8461   0023DC                     u5751:
  8462   0023DC  EFD4  F011         	goto	l4189
  8463   0023E0                     u5750:
  8464   0023E0  6A27               	clrf	___fldiv@aexp^0,c
  8465   0023E2  AE25               	btfss	(___fldiv@grs+3)^0,7,c
  8466   0023E4  EFF6  F011         	goto	u5761
  8467   0023E8  EFF8  F011         	goto	u5760
  8468   0023EC                     u5761:
  8469   0023EC  EF1C  F012         	goto	l717
  8470   0023F0                     u5760:
  8471   0023F0  0EFF               	movlw	255
  8472   0023F2  1422               	andwf	___fldiv@grs^0,w,c
  8473   0023F4  6E17               	movwf	??___fldiv^0,c
  8474   0023F6  0EFF               	movlw	255
  8475   0023F8  1423               	andwf	(___fldiv@grs+1)^0,w,c
  8476   0023FA  6E18               	movwf	(??___fldiv+1)^0,c
  8477   0023FC  0EFF               	movlw	255
  8478   0023FE  1424               	andwf	(___fldiv@grs+2)^0,w,c
  8479   002400  6E19               	movwf	(??___fldiv+2)^0,c
  8480   002402  0E7F               	movlw	127
  8481   002404  1425               	andwf	(___fldiv@grs+3)^0,w,c
  8482   002406  6E1A               	movwf	(??___fldiv+3)^0,c
  8483   002408  5017               	movf	??___fldiv^0,w,c
  8484   00240A  1018               	iorwf	(??___fldiv+1)^0,w,c
  8485   00240C  1019               	iorwf	(??___fldiv+2)^0,w,c
  8486   00240E  101A               	iorwf	(??___fldiv+3)^0,w,c
  8487   002410  B4D8               	btfsc	status,2,c
  8488   002412  EF0D  F012         	goto	u5771
  8489   002416  EF0F  F012         	goto	u5770
  8490   00241A                     u5771:
  8491   00241A  EF13  F012         	goto	l718
  8492   00241E                     u5770:
  8493   00241E                     l4199:
  8494   00241E  0E01               	movlw	1
  8495   002420  6E27               	movwf	___fldiv@aexp^0,c
  8496   002422  EF1C  F012         	goto	l717
  8497   002426                     l718:
  8498   002426  A00F               	btfss	___fldiv@b^0,0,c
  8499   002428  EF18  F012         	goto	u5781
  8500   00242C  EF1A  F012         	goto	u5780
  8501   002430                     u5781:
  8502   002430  EF1C  F012         	goto	l717
  8503   002434                     u5780:
  8504   002434  EF0F  F012         	goto	l4199
  8505   002438                     l717:
  8506   002438  5027               	movf	___fldiv@aexp^0,w,c
  8507   00243A  B4D8               	btfsc	status,2,c
  8508   00243C  EF22  F012         	goto	u5791
  8509   002440  EF24  F012         	goto	u5790
  8510   002444                     u5791:
  8511   002444  EF48  F012         	goto	l4211
  8512   002448                     u5790:
  8513   002448  0E01               	movlw	1
  8514   00244A  260F               	addwf	___fldiv@b^0,f,c
  8515   00244C  0E00               	movlw	0
  8516   00244E  2210               	addwfc	(___fldiv@b+1)^0,f,c
  8517   002450  2211               	addwfc	(___fldiv@b+2)^0,f,c
  8518   002452  2212               	addwfc	(___fldiv@b+3)^0,f,c
  8519   002454  A012               	btfss	(___fldiv@b+3)^0,0,c
  8520   002456  EF2F  F012         	goto	u5801
  8521   00245A  EF31  F012         	goto	u5800
  8522   00245E                     u5801:
  8523   00245E  EF48  F012         	goto	l4211
  8524   002462                     u5800:
  8525   002462  C00F  F017         	movff	___fldiv@b,??___fldiv
  8526   002466  C010  F018         	movff	___fldiv@b+1,??___fldiv+1
  8527   00246A  C011  F019         	movff	___fldiv@b+2,??___fldiv+2
  8528   00246E  C012  F01A         	movff	___fldiv@b+3,??___fldiv+3
  8529   002472  341A               	rlcf	(??___fldiv+3)^0,w,c
  8530   002474  321A               	rrcf	(??___fldiv+3)^0,f,c
  8531   002476  3219               	rrcf	(??___fldiv+2)^0,f,c
  8532   002478  3218               	rrcf	(??___fldiv+1)^0,f,c
  8533   00247A  3217               	rrcf	??___fldiv^0,f,c
  8534   00247C  C017  F00F         	movff	??___fldiv,___fldiv@b
  8535   002480  C018  F010         	movff	??___fldiv+1,___fldiv@b+1
  8536   002484  C019  F011         	movff	??___fldiv+2,___fldiv@b+2
  8537   002488  C01A  F012         	movff	??___fldiv+3,___fldiv@b+3
  8538   00248C  4A20               	infsnz	___fldiv@new_exp^0,f,c
  8539   00248E  2A21               	incf	(___fldiv@new_exp+1)^0,f,c
  8540   002490                     l4211:
  8541   002490  BE21               	btfsc	(___fldiv@new_exp+1)^0,7,c
  8542   002492  EF53  F012         	goto	u5811
  8543   002496  5021               	movf	(___fldiv@new_exp+1)^0,w,c
  8544   002498  E108               	bnz	u5810
  8545   00249A  2820               	incf	___fldiv@new_exp^0,w,c
  8546   00249C  A0D8               	btfss	status,0,c
  8547   00249E  EF53  F012         	goto	u5811
  8548   0024A2  EF55  F012         	goto	u5810
  8549   0024A6                     u5811:
  8550   0024A6  EF60  F012         	goto	l4215
  8551   0024AA                     u5810:
  8552   0024AA  0E00               	movlw	0
  8553   0024AC  6E21               	movwf	(___fldiv@new_exp+1)^0,c
  8554   0024AE  6820               	setf	___fldiv@new_exp^0,c
  8555   0024B0  0E00               	movlw	0
  8556   0024B2  6E0F               	movwf	___fldiv@b^0,c
  8557   0024B4  0E00               	movlw	0
  8558   0024B6  6E10               	movwf	(___fldiv@b+1)^0,c
  8559   0024B8  0E00               	movlw	0
  8560   0024BA  6E11               	movwf	(___fldiv@b+2)^0,c
  8561   0024BC  0E00               	movlw	0
  8562   0024BE  6E12               	movwf	(___fldiv@b+3)^0,c
  8563   0024C0                     l4215:
  8564   0024C0  BE21               	btfsc	(___fldiv@new_exp+1)^0,7,c
  8565   0024C2  EF6D  F012         	goto	u5820
  8566   0024C6  5021               	movf	(___fldiv@new_exp+1)^0,w,c
  8567   0024C8  E106               	bnz	u5821
  8568   0024CA  0420               	decf	___fldiv@new_exp^0,w,c
  8569   0024CC  B0D8               	btfsc	status,0,c
  8570   0024CE  EF6B  F012         	goto	u5821
  8571   0024D2  EF6D  F012         	goto	u5820
  8572   0024D6                     u5821:
  8573   0024D6  EF7A  F012         	goto	l4221
  8574   0024DA                     u5820:
  8575   0024DA  0E00               	movlw	0
  8576   0024DC  6E21               	movwf	(___fldiv@new_exp+1)^0,c
  8577   0024DE  0E00               	movlw	0
  8578   0024E0  6E20               	movwf	___fldiv@new_exp^0,c
  8579   0024E2  0E00               	movlw	0
  8580   0024E4  6E0F               	movwf	___fldiv@b^0,c
  8581   0024E6  0E00               	movlw	0
  8582   0024E8  6E10               	movwf	(___fldiv@b+1)^0,c
  8583   0024EA  0E00               	movlw	0
  8584   0024EC  6E11               	movwf	(___fldiv@b+2)^0,c
  8585   0024EE  0E00               	movlw	0
  8586   0024F0  6E12               	movwf	(___fldiv@b+3)^0,c
  8587   0024F2  6A1F               	clrf	___fldiv@sign^0,c
  8588   0024F4                     l4221:
  8589   0024F4  C020  F026         	movff	___fldiv@new_exp,___fldiv@bexp
  8590   0024F8  A026               	btfss	___fldiv@bexp^0,0,c
  8591   0024FA  EF81  F012         	goto	u5831
  8592   0024FE  EF83  F012         	goto	u5830
  8593   002502                     u5831:
  8594   002502  EF86  F012         	goto	l4227
  8595   002506                     u5830:
  8596   002506  8E11               	bsf	(___fldiv@b+2)^0,7,c
  8597   002508  EF87  F012         	goto	l4229
  8598   00250C                     l4227:
  8599   00250C  9E11               	bcf	(___fldiv@b+2)^0,7,c
  8600   00250E                     l4229:
  8601   00250E  90D8               	bcf	status,0,c
  8602   002510  3026               	rrcf	___fldiv@bexp^0,w,c
  8603   002512  6E12               	movwf	(___fldiv@b+3)^0,c
  8604   002514  EF40  F011         	goto	l4145
  8605   002518                     l704:
  8606   002518  0012               	return		;funcret
  8607   00251A                     __end_of___fldiv:
  8608                           	callstack 0
  8609                           
  8610 ;; *************** function _Posiciona_LCD *****************
  8611 ;; Defined at:
  8612 ;;		line 37 in file "./lcd.h"
  8613 ;; Parameters:    Size  Location     Type
  8614 ;;  linha           1    wreg     unsigned char 
  8615 ;;  coluna          1    2[COMRAM] unsigned char 
  8616 ;; Auto vars:     Size  Location     Type
  8617 ;;  linha           1    3[COMRAM] unsigned char 
  8618 ;;  x               1    4[COMRAM] unsigned char 
  8619 ;; Return value:  Size  Location     Type
  8620 ;;                  1    wreg      void 
  8621 ;; Registers used:
  8622 ;;		wreg, status,2, status,0, cstack
  8623 ;; Tracked objects:
  8624 ;;		On entry : 0/0
  8625 ;;		On exit  : 0/0
  8626 ;;		Unchanged: 0/0
  8627 ;; Data sizes:     COMRAM   BANK0   BANK1   BANK2   BANK3   BANK4   BANK5   BANK6   BANK7
  8628 ;;      Params:         1       0       0       0       0       0       0       0       0
  8629 ;;      Locals:         2       0       0       0       0       0       0       0       0
  8630 ;;      Temps:          0       0       0       0       0       0       0       0       0
  8631 ;;      Totals:         3       0       0       0       0       0       0       0       0
  8632 ;;Total ram usage:        3 bytes
  8633 ;; Hardware stack levels used: 1
  8634 ;; Hardware stack levels required when called: 2
  8635 ;; This function calls:
  8636 ;;		_Comando_LCD
  8637 ;; This function is called by:
  8638 ;;		_main
  8639 ;; This function uses a non-reentrant model
  8640 ;;
  8641                           
  8642                           	psect	text31
  8643   0034D4                     __ptext31:
  8644                           	callstack 0
  8645   0034D4                     _Posiciona_LCD:
  8646                           	callstack 28
  8647                           
  8648                           ;incstack = 0
  8649                           ;Posiciona_LCD@linha stored from wreg
  8650   0034D4  6E04               	movwf	Posiciona_LCD@linha^0,c
  8651   0034D6                     
  8652                           ;./lcd.h: 38:    unsigned char x = 0;
  8653   0034D6  6A05               	clrf	Posiciona_LCD@x^0,c
  8654   0034D8                     
  8655                           ;./lcd.h: 39:    --coluna;
  8656   0034D8  0603               	decf	Posiciona_LCD@coluna^0,f,c
  8657                           
  8658                           ;./lcd.h: 40:    switch (linha){
  8659   0034DA  EF83  F01A         	goto	l3693
  8660   0034DE                     l3683:
  8661   0034DE  5003               	movf	Posiciona_LCD@coluna^0,w,c
  8662   0034E0  0F80               	addlw	128
  8663   0034E2  6E05               	movwf	Posiciona_LCD@x^0,c
  8664                           
  8665                           ;./lcd.h: 42:                break;
  8666   0034E4  EF96  F01A         	goto	l3695
  8667   0034E8                     l3685:
  8668   0034E8  5003               	movf	Posiciona_LCD@coluna^0,w,c
  8669   0034EA  0FC0               	addlw	192
  8670   0034EC  6E05               	movwf	Posiciona_LCD@x^0,c
  8671                           
  8672                           ;./lcd.h: 44:                break;
  8673   0034EE  EF96  F01A         	goto	l3695
  8674   0034F2                     l3687:
  8675   0034F2  5003               	movf	Posiciona_LCD@coluna^0,w,c
  8676   0034F4  0F90               	addlw	144
  8677   0034F6  6E05               	movwf	Posiciona_LCD@x^0,c
  8678                           
  8679                           ;./lcd.h: 46:                break;
  8680   0034F8  EF96  F01A         	goto	l3695
  8681   0034FC                     l3689:
  8682   0034FC  5003               	movf	Posiciona_LCD@coluna^0,w,c
  8683   0034FE  0FD0               	addlw	208
  8684   003500  6E05               	movwf	Posiciona_LCD@x^0,c
  8685                           
  8686                           ;./lcd.h: 48:                break;
  8687   003502  EF96  F01A         	goto	l3695
  8688   003506                     l3693:
  8689   003506  5004               	movf	Posiciona_LCD@linha^0,w,c
  8690                           
  8691                           ; Switch size 1, requested type "simple"
  8692                           ; Number of cases is 4, Range of values is 1 to 4
  8693                           ; switch strategies available:
  8694                           ; Name         Instructions Cycles
  8695                           ; simple_byte           13     7 (average)
  8696                           ;	Chosen strategy is simple_byte
  8697   003508  0A01               	xorlw	1	; case 1
  8698   00350A  B4D8               	btfsc	status,2,c
  8699   00350C  EF6F  F01A         	goto	l3683
  8700   003510  0A03               	xorlw	3	; case 2
  8701   003512  B4D8               	btfsc	status,2,c
  8702   003514  EF74  F01A         	goto	l3685
  8703   003518  0A01               	xorlw	1	; case 3
  8704   00351A  B4D8               	btfsc	status,2,c
  8705   00351C  EF79  F01A         	goto	l3687
  8706   003520  0A07               	xorlw	7	; case 4
  8707   003522  B4D8               	btfsc	status,2,c
  8708   003524  EF7E  F01A         	goto	l3689
  8709   003528  EF96  F01A         	goto	l3695
  8710   00352C                     l3695:
  8711                           
  8712                           ;./lcd.h: 51:    if (x != 0) Comando_LCD (x);
  8713   00352C  5005               	movf	Posiciona_LCD@x^0,w,c
  8714   00352E  B4D8               	btfsc	status,2,c
  8715   003530  EF9C  F01A         	goto	u4651
  8716   003534  EF9E  F01A         	goto	u4650
  8717   003538                     u4651:
  8718   003538  EFA1  F01A         	goto	l62
  8719   00353C                     u4650:
  8720   00353C  5005               	movf	Posiciona_LCD@x^0,w,c
  8721   00353E  EC8B  F01C         	call	_Comando_LCD
  8722   003542                     l62:
  8723   003542  0012               	return		;funcret
  8724   003544                     __end_of_Posiciona_LCD:
  8725                           	callstack 0
  8726                           
  8727 ;; *************** function _Inicializa_LCD *****************
  8728 ;; Defined at:
  8729 ;;		line 85 in file "./lcd.h"
  8730 ;; Parameters:    Size  Location     Type
  8731 ;;		None
  8732 ;; Auto vars:     Size  Location     Type
  8733 ;;  x               1    3[COMRAM] unsigned char 
  8734 ;; Return value:  Size  Location     Type
  8735 ;;                  1    wreg      void 
  8736 ;; Registers used:
  8737 ;;		wreg, fsr2l, fsr2h, status,2, status,0, cstack
  8738 ;; Tracked objects:
  8739 ;;		On entry : 0/0
  8740 ;;		On exit  : 0/0
  8741 ;;		Unchanged: 0/0
  8742 ;; Data sizes:     COMRAM   BANK0   BANK1   BANK2   BANK3   BANK4   BANK5   BANK6   BANK7
  8743 ;;      Params:         0       0       0       0       0       0       0       0       0
  8744 ;;      Locals:         1       0       0       0       0       0       0       0       0
  8745 ;;      Temps:          1       0       0       0       0       0       0       0       0
  8746 ;;      Totals:         2       0       0       0       0       0       0       0       0
  8747 ;;Total ram usage:        2 bytes
  8748 ;; Hardware stack levels used: 1
  8749 ;; Hardware stack levels required when called: 2
  8750 ;; This function calls:
  8751 ;;		_Comando_LCD
  8752 ;; This function is called by:
  8753 ;;		_main
  8754 ;; This function uses a non-reentrant model
  8755 ;;
  8756                           
  8757                           	psect	text32
  8758   003608                     __ptext32:
  8759                           	callstack 0
  8760   003608                     _Inicializa_LCD:
  8761                           	callstack 28
  8762   003608                     
  8763                           ;./lcd.h: 86:    unsigned char x = 0;
  8764   003608  6A04               	clrf	Inicializa_LCD@x^0,c
  8765   00360A                     
  8766                           ;./lcd.h: 87:    static unsigned char ini [] = {0x38,0x38,0x38,0x0C,0x06,0x01,0x00};;./l
      +                          cd.h: 89:    ADCON1 = 0x0F;
  8767   00360A  0E0F               	movlw	15
  8768   00360C  6EC1               	movwf	193,c	;volatile
  8769   00360E                     
  8770                           ;./lcd.h: 91:    PORTD = 0x00;
  8771   00360E  6A83               	clrf	131,c	;volatile
  8772   003610                     
  8773                           ;./lcd.h: 92:    PORTE = PORTE & 0xF8;
  8774   003610  5084               	movf	132,w,c	;volatile
  8775   003612  0BF8               	andlw	248
  8776   003614  6E84               	movwf	132,c	;volatile
  8777   003616                     
  8778                           ;./lcd.h: 93:    TRISD = 0x00;
  8779   003616  6A95               	clrf	149,c	;volatile
  8780   003618                     
  8781                           ;./lcd.h: 94:    TRISE = TRISE & 0xF8;
  8782   003618  5096               	movf	150,w,c	;volatile
  8783   00361A  0BF8               	andlw	248
  8784   00361C  6E96               	movwf	150,c	;volatile
  8785                           
  8786                           ;./lcd.h: 96:    while (ini [x] != 0x00){
  8787   00361E  EF20  F01B         	goto	l3727
  8788   003622                     l3721:
  8789                           
  8790                           ;./lcd.h: 97:       Comando_LCD (ini[x]);
  8791   003622  5004               	movf	Inicializa_LCD@x^0,w,c
  8792   003624  0FD0               	addlw	low Inicializa_LCD@ini
  8793   003626  6ED9               	movwf	fsr2l,c
  8794   003628  6ADA               	clrf	fsr2h,c
  8795   00362A  50DF               	movf	indf2,w,c
  8796   00362C  EC8B  F01C         	call	_Comando_LCD
  8797   003630                     
  8798                           ;./lcd.h: 98:       ++ x;
  8799   003630  2A04               	incf	Inicializa_LCD@x^0,f,c
  8800   003632                     
  8801                           ;./lcd.h: 99:       _delay((unsigned long)((5)*(2000000/4000.0)));
  8802   003632  0E04               	movlw	4
  8803   003634  6E03               	movwf	??_Inicializa_LCD^0,c
  8804   003636  0E3E               	movlw	62
  8805   003638                     u7637:
  8806   003638  2EE8               	decfsz	wreg,f,c
  8807   00363A  D7FE               	bra	u7637
  8808   00363C  2E03               	decfsz	??_Inicializa_LCD^0,f,c
  8809   00363E  D7FC               	bra	u7637
  8810   003640                     l3727:
  8811                           
  8812                           ;./lcd.h: 96:    while (ini [x] != 0x00){
  8813   003640  5004               	movf	Inicializa_LCD@x^0,w,c
  8814   003642  0FD0               	addlw	low Inicializa_LCD@ini
  8815   003644  6ED9               	movwf	fsr2l,c
  8816   003646  6ADA               	clrf	fsr2h,c
  8817   003648  50DF               	movf	indf2,w,c
  8818   00364A  A4D8               	btfss	status,2,c
  8819   00364C  EF2A  F01B         	goto	u4691
  8820   003650  EF2C  F01B         	goto	u4690
  8821   003654                     u4691:
  8822   003654  EF11  F01B         	goto	l3721
  8823   003658                     u4690:
  8824   003658  0012               	return		;funcret
  8825   00365A                     __end_of_Inicializa_LCD:
  8826                           	callstack 0
  8827                           
  8828 ;; *************** function _Comando_LCD *****************
  8829 ;; Defined at:
  8830 ;;		line 23 in file "./lcd.h"
  8831 ;; Parameters:    Size  Location     Type
  8832 ;;  comando         1    wreg     unsigned char 
  8833 ;; Auto vars:     Size  Location     Type
  8834 ;;  comando         1    1[COMRAM] unsigned char 
  8835 ;; Return value:  Size  Location     Type
  8836 ;;                  1    wreg      void 
  8837 ;; Registers used:
  8838 ;;		wreg
  8839 ;; Tracked objects:
  8840 ;;		On entry : 0/0
  8841 ;;		On exit  : 0/0
  8842 ;;		Unchanged: 0/0
  8843 ;; Data sizes:     COMRAM   BANK0   BANK1   BANK2   BANK3   BANK4   BANK5   BANK6   BANK7
  8844 ;;      Params:         0       0       0       0       0       0       0       0       0
  8845 ;;      Locals:         1       0       0       0       0       0       0       0       0
  8846 ;;      Temps:          1       0       0       0       0       0       0       0       0
  8847 ;;      Totals:         2       0       0       0       0       0       0       0       0
  8848 ;;Total ram usage:        2 bytes
  8849 ;; Hardware stack levels used: 1
  8850 ;; Hardware stack levels required when called: 1
  8851 ;; This function calls:
  8852 ;;		Nothing
  8853 ;; This function is called by:
  8854 ;;		_Posiciona_LCD
  8855 ;;		_Inicializa_LCD
  8856 ;; This function uses a non-reentrant model
  8857 ;;
  8858                           
  8859                           	psect	text33
  8860   003916                     __ptext33:
  8861                           	callstack 0
  8862   003916                     _Comando_LCD:
  8863                           	callstack 28
  8864                           
  8865                           ;incstack = 0
  8866                           ;Comando_LCD@comando stored from wreg
  8867   003916  6E02               	movwf	Comando_LCD@comando^0,c
  8868   003918                     
  8869                           ;./lcd.h: 24:    PORTEbits.RE0 = 0;
  8870   003918  9084               	bcf	132,0,c	;volatile
  8871   00391A                     
  8872                           ;./lcd.h: 27:    PORTD = comando;
  8873   00391A  C002  FF83         	movff	Comando_LCD@comando,3971	;volatile
  8874   00391E                     
  8875                           ;./lcd.h: 28:    PORTEbits.RE1 = 1;
  8876   00391E  8284               	bsf	132,1,c	;volatile
  8877   003920                     
  8878                           ;./lcd.h: 29:    _delay((unsigned long)((5)*(2000000/4000.0)));
  8879   003920  0E04               	movlw	4
  8880   003922  6E01               	movwf	??_Comando_LCD^0,c
  8881   003924  0E3E               	movlw	62
  8882   003926                     u7647:
  8883   003926  2EE8               	decfsz	wreg,f,c
  8884   003928  D7FE               	bra	u7647
  8885   00392A  2E01               	decfsz	??_Comando_LCD^0,f,c
  8886   00392C  D7FC               	bra	u7647
  8887   00392E                     
  8888                           ;./lcd.h: 30:    PORTEbits.RE1 = 0;
  8889   00392E  9284               	bcf	132,1,c	;volatile
  8890   003930                     
  8891                           ;./lcd.h: 31:    _delay((unsigned long)((10)*(2000000/4000.0)));
  8892   003930  0E07               	movlw	7
  8893   003932  6E01               	movwf	??_Comando_LCD^0,c
  8894   003934  0E7D               	movlw	125
  8895   003936                     u7657:
  8896   003936  2EE8               	decfsz	wreg,f,c
  8897   003938  D7FE               	bra	u7657
  8898   00393A  2E01               	decfsz	??_Comando_LCD^0,f,c
  8899   00393C  D7FC               	bra	u7657
  8900   00393E  0000               	nop	
  8901   003940  0012               	return		;funcret
  8902   003942                     __end_of_Comando_LCD:
  8903                           	callstack 0
  8904                           
  8905 ;; *************** function _Escreve_LCD *****************
  8906 ;; Defined at:
  8907 ;;		line 73 in file "./lcd.h"
  8908 ;; Parameters:    Size  Location     Type
  8909 ;;  caracter        2    2[COMRAM] PTR unsigned char 
  8910 ;;		 -> STR_15(13), STR_14(17), STR_13(11), STR_12(17), 
  8911 ;;		 -> STR_11(8), STR_10(17), STR_9(14), STR_8(17), 
  8912 ;;		 -> STR_7(13), STR_6(17), main@lcd_buffer(17), STR_3(13), 
  8913 ;;		 -> STR_2(12), STR_1(13), 
  8914 ;; Auto vars:     Size  Location     Type
  8915 ;;		None
  8916 ;; Return value:  Size  Location     Type
  8917 ;;                  1    wreg      void 
  8918 ;; Registers used:
  8919 ;;		wreg, fsr1l, fsr1h, status,2, status,0, tblptrl, tblptrh, tblptru, cstack
  8920 ;; Tracked objects:
  8921 ;;		On entry : 0/0
  8922 ;;		On exit  : 0/0
  8923 ;;		Unchanged: 0/0
  8924 ;; Data sizes:     COMRAM   BANK0   BANK1   BANK2   BANK3   BANK4   BANK5   BANK6   BANK7
  8925 ;;      Params:         2       0       0       0       0       0       0       0       0
  8926 ;;      Locals:         0       0       0       0       0       0       0       0       0
  8927 ;;      Temps:          1       0       0       0       0       0       0       0       0
  8928 ;;      Totals:         3       0       0       0       0       0       0       0       0
  8929 ;;Total ram usage:        3 bytes
  8930 ;; Hardware stack levels used: 1
  8931 ;; Hardware stack levels required when called: 2
  8932 ;; This function calls:
  8933 ;;		_Escreve_C_LCD
  8934 ;; This function is called by:
  8935 ;;		_main
  8936 ;; This function uses a non-reentrant model
  8937 ;;
  8938                           
  8939                           	psect	text34
  8940   003544                     __ptext34:
  8941                           	callstack 0
  8942   003544                     _Escreve_LCD:
  8943                           	callstack 28
  8944   003544                     
  8945                           ;./lcd.h: 74:    while (*caracter != '\0'){
  8946   003544  EFC0  F01A         	goto	l3707
  8947   003548                     l3701:
  8948                           
  8949                           ;./lcd.h: 75:       Escreve_C_LCD (*caracter);
  8950   003548  C003  FFF6         	movff	Escreve_LCD@caracter,tblptrl
  8951   00354C  C004  FFF7         	movff	Escreve_LCD@caracter+1,tblptrh
  8952   003550  6AF8               	clrf	tblptru,c
  8953   003552  0E07               	movlw	(high __ramtop+-1)
  8954   003554  64F7               	cpfsgt	tblptrh,c
  8955   003556  D003               	bra	u4667
  8956   003558  0008               	tblrd		*
  8957   00355A  50F5               	movf	tablat,w,c
  8958   00355C  D005               	bra	u4660
  8959   00355E                     u4667:
  8960   00355E  CFF6 FFE1          	movff	tblptrl,fsr1l
  8961   003562  CFF7 FFE2          	movff	tblptrh,fsr1h
  8962   003566  50E7               	movf	indf1,w,c
  8963   003568                     u4660:
  8964   003568  ECFD  F01B         	call	_Escreve_C_LCD
  8965   00356C                     
  8966                           ;./lcd.h: 76:       ++caracter;
  8967   00356C  4A03               	infsnz	Escreve_LCD@caracter^0,f,c
  8968   00356E  2A04               	incf	(Escreve_LCD@caracter+1)^0,f,c
  8969   003570                     
  8970                           ;./lcd.h: 77:       _delay((unsigned long)((10)*(2000000/4000.0)));
  8971   003570  0E07               	movlw	7
  8972   003572  6E05               	movwf	??_Escreve_LCD^0,c
  8973   003574  0E7D               	movlw	125
  8974   003576                     u7667:
  8975   003576  2EE8               	decfsz	wreg,f,c
  8976   003578  D7FE               	bra	u7667
  8977   00357A  2E05               	decfsz	??_Escreve_LCD^0,f,c
  8978   00357C  D7FC               	bra	u7667
  8979   00357E  0000               	nop	
  8980   003580                     l3707:
  8981                           
  8982                           ;./lcd.h: 74:    while (*caracter != '\0'){
  8983   003580  C003  FFF6         	movff	Escreve_LCD@caracter,tblptrl
  8984   003584  C004  FFF7         	movff	Escreve_LCD@caracter+1,tblptrh
  8985   003588  6AF8               	clrf	tblptru,c
  8986   00358A  0E07               	movlw	(high __ramtop+-1)
  8987   00358C  64F7               	cpfsgt	tblptrh,c
  8988   00358E  D003               	bra	u4677
  8989   003590  0008               	tblrd		*
  8990   003592  50F5               	movf	tablat,w,c
  8991   003594  D005               	bra	u4670
  8992   003596                     u4677:
  8993   003596  CFF6 FFE1          	movff	tblptrl,fsr1l
  8994   00359A  CFF7 FFE2          	movff	tblptrh,fsr1h
  8995   00359E  50E7               	movf	indf1,w,c
  8996   0035A0                     u4670:
  8997   0035A0  0900               	iorlw	0
  8998   0035A2  A4D8               	btfss	status,2,c
  8999   0035A4  EFD6  F01A         	goto	u4681
  9000   0035A8  EFD8  F01A         	goto	u4680
  9001   0035AC                     u4681:
  9002   0035AC  EFA4  F01A         	goto	l3701
  9003   0035B0                     u4680:
  9004   0035B0  0012               	return		;funcret
  9005   0035B2                     __end_of_Escreve_LCD:
  9006                           	callstack 0
  9007                           
  9008 ;; *************** function _Escreve_C_LCD *****************
  9009 ;; Defined at:
  9010 ;;		line 57 in file "./lcd.h"
  9011 ;; Parameters:    Size  Location     Type
  9012 ;;  caracter        1    wreg     unsigned char 
  9013 ;; Auto vars:     Size  Location     Type
  9014 ;;  caracter        1    1[COMRAM] unsigned char 
  9015 ;; Return value:  Size  Location     Type
  9016 ;;                  1    wreg      void 
  9017 ;; Registers used:
  9018 ;;		wreg, status,2, cstack
  9019 ;; Tracked objects:
  9020 ;;		On entry : 0/0
  9021 ;;		On exit  : 0/0
  9022 ;;		Unchanged: 0/0
  9023 ;; Data sizes:     COMRAM   BANK0   BANK1   BANK2   BANK3   BANK4   BANK5   BANK6   BANK7
  9024 ;;      Params:         0       0       0       0       0       0       0       0       0
  9025 ;;      Locals:         1       0       0       0       0       0       0       0       0
  9026 ;;      Temps:          1       0       0       0       0       0       0       0       0
  9027 ;;      Totals:         2       0       0       0       0       0       0       0       0
  9028 ;;Total ram usage:        2 bytes
  9029 ;; Hardware stack levels used: 1
  9030 ;; Hardware stack levels required when called: 1
  9031 ;; This function calls:
  9032 ;;		Nothing
  9033 ;; This function is called by:
  9034 ;;		_Escreve_LCD
  9035 ;; This function uses a non-reentrant model
  9036 ;;
  9037                           
  9038                           	psect	text35
  9039   0037FA                     __ptext35:
  9040                           	callstack 0
  9041   0037FA                     _Escreve_C_LCD:
  9042                           	callstack 28
  9043                           
  9044                           ;incstack = 0
  9045                           ;Escreve_C_LCD@caracter stored from wreg
  9046   0037FA  6E02               	movwf	Escreve_C_LCD@caracter^0,c
  9047   0037FC                     
  9048                           ;./lcd.h: 58:    PORTEbits.RE0 = 1;
  9049   0037FC  8084               	bsf	132,0,c	;volatile
  9050                           
  9051                           ;./lcd.h: 61:    PORTEbits.RE1 = 0;
  9052   0037FE  9284               	bcf	132,1,c	;volatile
  9053   003800                     
  9054                           ;./lcd.h: 62:    _delay((unsigned long)((5)*(2000000/4000.0)));
  9055   003800  0E04               	movlw	4
  9056   003802  6E01               	movwf	??_Escreve_C_LCD^0,c
  9057   003804  0E3E               	movlw	62
  9058   003806                     u7677:
  9059   003806  2EE8               	decfsz	wreg,f,c
  9060   003808  D7FE               	bra	u7677
  9061   00380A  2E01               	decfsz	??_Escreve_C_LCD^0,f,c
  9062   00380C  D7FC               	bra	u7677
  9063   00380E                     
  9064                           ;./lcd.h: 63:    PORTD = caracter;
  9065   00380E  C002  FF83         	movff	Escreve_C_LCD@caracter,3971	;volatile
  9066   003812                     
  9067                           ;./lcd.h: 64:    PORTEbits.RE1 = 1;
  9068   003812  8284               	bsf	132,1,c	;volatile
  9069   003814                     
  9070                           ;./lcd.h: 65:    _delay((unsigned long)((10)*(2000000/4000.0)));
  9071   003814  0E07               	movlw	7
  9072   003816  6E01               	movwf	??_Escreve_C_LCD^0,c
  9073   003818  0E7D               	movlw	125
  9074   00381A                     u7687:
  9075   00381A  2EE8               	decfsz	wreg,f,c
  9076   00381C  D7FE               	bra	u7687
  9077   00381E  2E01               	decfsz	??_Escreve_C_LCD^0,f,c
  9078   003820  D7FC               	bra	u7687
  9079   003822  0000               	nop	
  9080   003824                     
  9081                           ;./lcd.h: 66:    PORTEbits.RE1 = 0;
  9082   003824  9284               	bcf	132,1,c	;volatile
  9083   003826                     
  9084                           ;./lcd.h: 67:    _delay((unsigned long)((10)*(2000000/4000.0)));
  9085   003826  0E07               	movlw	7
  9086   003828  6E01               	movwf	??_Escreve_C_LCD^0,c
  9087   00382A  0E7D               	movlw	125
  9088   00382C                     u7697:
  9089   00382C  2EE8               	decfsz	wreg,f,c
  9090   00382E  D7FE               	bra	u7697
  9091   003830  2E01               	decfsz	??_Escreve_C_LCD^0,f,c
  9092   003832  D7FC               	bra	u7697
  9093   003834  0000               	nop	
  9094   003836  0012               	return		;funcret
  9095   003838                     __end_of_Escreve_C_LCD:
  9096                           	callstack 0
  9097                           
  9098 ;; *************** function _isr *****************
  9099 ;; Defined at:
  9100 ;;		line 54 in file "main.c"
  9101 ;; Parameters:    Size  Location     Type
  9102 ;;		None
  9103 ;; Auto vars:     Size  Location     Type
  9104 ;;		None
  9105 ;; Return value:  Size  Location     Type
  9106 ;;                  1    wreg      void 
  9107 ;; Registers used:
  9108 ;;		None
  9109 ;; Tracked objects:
  9110 ;;		On entry : 0/0
  9111 ;;		On exit  : 0/0
  9112 ;;		Unchanged: 0/0
  9113 ;; Data sizes:     COMRAM   BANK0   BANK1   BANK2   BANK3   BANK4   BANK5   BANK6   BANK7
  9114 ;;      Params:         0       0       0       0       0       0       0       0       0
  9115 ;;      Locals:         0       0       0       0       0       0       0       0       0
  9116 ;;      Temps:          0       0       0       0       0       0       0       0       0
  9117 ;;      Totals:         0       0       0       0       0       0       0       0       0
  9118 ;;Total ram usage:        0 bytes
  9119 ;; Hardware stack levels used: 1
  9120 ;; This function calls:
  9121 ;;		Nothing
  9122 ;; This function is called by:
  9123 ;;		Interrupt level 2
  9124 ;; This function uses a non-reentrant model
  9125 ;;
  9126                           
  9127                           	psect	intcode
  9128   000008                     __pintcode:
  9129                           	callstack 0
  9130   000008                     _isr:
  9131                           	callstack 22
  9132                           
  9133                           ;incstack = 0
  9134   000008  825C               	bsf	int$flags,1,c	;set compiler interrupt flag (level 2)
  9135   00000A  EDA1  F01C         	call	int_func,f	;refresh shadow registers
  9136                           
  9137                           	psect	intcode_body
  9138   003942                     __pintcode_body:
  9139                           	callstack 22
  9140   003942                     int_func:
  9141                           	callstack 22
  9142   003942  0006               	pop		; remove dummy address from shadow register refresh
  9143   003944                     
  9144                           ;main.c: 55:     TRISAbits.TRISA1 = 1;
  9145   003944  A2F2               	btfss	242,1,c	;volatile
  9146   003946  EFA7  F01C         	goto	i2u471_41
  9147   00394A  EFA9  F01C         	goto	i2u471_40
  9148   00394E                     i2u471_41:
  9149   00394E  EFAD  F01C         	goto	i2l98
  9150   003952                     i2u471_40:
  9151   003952                     
  9152                           ;main.c: 56: 
  9153   003952  92F2               	bcf	242,1,c	;volatile
  9154                           
  9155                           ;main.c: 58:     setup_adc();
  9156   003954  0100               	movlb	0	; () banked
  9157   003956  6BCF               	clrf	_alarme_ativo& (0+255),b	;volatile
  9158                           
  9159                           ;main.c: 59: 
  9160   003958  6BCE               	clrf	_alarme_leve& (0+255),b	;volatile
  9161   00395A                     i2l98:
  9162   00395A  925C               	bcf	int$flags,1,c	;clear compiler interrupt flag (level 2)
  9163   00395C  0011               	retfie		f
  9164   00395E                     __end_of_isr:
  9165                           	callstack 0
  9166                           
  9167                           	psect	rparam
  9168   000001                     ___rparam_used  equ	1
  9169   000000                     ___param_bank   equ	0
  9170   000000                     __Lparam        equ	__Lrparam
  9171   000000                     __Hparam        equ	__Hrparam
  9172                           
  9173                           	psect	temp
  9174   00005C                     btemp:
  9175                           	callstack 0
  9176   00005C                     	ds	1
  9177   00005C                     int$flags       set	btemp
  9178   00005D                     wtemp8          set	btemp+1
  9179   00005D                     ttemp5          set	btemp+1
  9180   000060                     ttemp6          set	btemp+4
  9181   000064                     ttemp7          set	btemp+8
  9182                           
  9183                           	psect	config
  9184                           
  9185                           ;Config register CONFIG1L @ 0x300000
  9186                           ;	unspecified, using default values
  9187                           ;	PLL Prescaler Selection bits
  9188                           ;	PLLDIV = 0x0, unprogrammed default
  9189                           ;	System Clock Postscaler Selection bits
  9190                           ;	CPUDIV = 0x0, unprogrammed default
  9191                           ;	USB Clock Selection bit (used in Full-Speed USB mode only; UCFG:FSEN = 1)
  9192                           ;	USBDIV = 0x0, unprogrammed default
  9193   300000                     	org	3145728
  9194   300000  00                 	db	0
  9195                           
  9196                           ;Config register CONFIG1H @ 0x300001
  9197                           ;	Oscillator Selection bits
  9198                           ;	FOSC = HS, HS oscillator (HS)
  9199                           ;	Fail-Safe Clock Monitor Enable bit
  9200                           ;	FCMEN = 0x0, unprogrammed default
  9201                           ;	Internal/External Oscillator Switchover bit
  9202                           ;	IESO = 0x0, unprogrammed default
  9203   300001                     	org	3145729
  9204   300001  0C                 	db	12
  9205                           
  9206                           ;Config register CONFIG2L @ 0x300002
  9207                           ;	Power-up Timer Enable bit
  9208                           ;	PWRT = OFF, PWRT disabled
  9209                           ;	Brown-out Reset Enable bits
  9210                           ;	BOR = OFF, Brown-out Reset disabled in hardware and software
  9211                           ;	Brown-out Reset Voltage bits
  9212                           ;	BORV = 0x3, unprogrammed default
  9213                           ;	USB Voltage Regulator Enable bit
  9214                           ;	VREGEN = 0x0, unprogrammed default
  9215   300002                     	org	3145730
  9216   300002  19                 	db	25
  9217                           
  9218                           ;Config register CONFIG2H @ 0x300003
  9219                           ;	Watchdog Timer Enable bit
  9220                           ;	WDT = OFF, WDT disabled (control is placed on the SWDTEN bit)
  9221                           ;	Watchdog Timer Postscale Select bits
  9222                           ;	WDTPS = 0xF, unprogrammed default
  9223   300003                     	org	3145731
  9224   300003  1E                 	db	30
  9225                           
  9226                           ; Padding undefined space
  9227   300004                     	org	3145732
  9228   300004  FF                 	db	255
  9229                           
  9230                           ;Config register CONFIG3H @ 0x300005
  9231                           ;	CCP2 MUX bit
  9232                           ;	CCP2MX = 0x1, unprogrammed default
  9233                           ;	PORTB A/D Enable bit
  9234                           ;	PBADEN = OFF, PORTB<4:0> pins are configured as digital I/O on Reset
  9235                           ;	Low-Power Timer 1 Oscillator Enable bit
  9236                           ;	LPT1OSC = 0x0, unprogrammed default
  9237                           ;	MCLR Pin Enable bit
  9238                           ;	MCLRE = ON, MCLR pin enabled; RE3 input pin disabled
  9239   300005                     	org	3145733
  9240   300005  81                 	db	129
  9241                           
  9242                           ;Config register CONFIG4L @ 0x300006
  9243                           ;	Stack Full/Underflow Reset Enable bit
  9244                           ;	STVREN = 0x1, unprogrammed default
  9245                           ;	Single-Supply ICSP Enable bit
  9246                           ;	LVP = OFF, Single-Supply ICSP disabled
  9247                           ;	Dedicated In-Circuit Debug/Programming Port (ICPORT) Enable bit
  9248                           ;	ICPRT = 0x0, unprogrammed default
  9249                           ;	Extended Instruction Set Enable bit
  9250                           ;	XINST = 0x0, unprogrammed default
  9251                           ;	Background Debugger Enable bit
  9252                           ;	DEBUG = 0x1, unprogrammed default
  9253   300006                     	org	3145734
  9254   300006  81                 	db	129
  9255                           
  9256                           ; Padding undefined space
  9257   300007                     	org	3145735
  9258   300007  FF                 	db	255
  9259                           tosu	equ	0xFFF
  9260                           tosh	equ	0xFFE
  9261                           tosl	equ	0xFFD
  9262                           stkptr	equ	0xFFC
  9263                           pclatu	equ	0xFFB
  9264                           pclath	equ	0xFFA
  9265                           pcl	equ	0xFF9
  9266                           tblptru	equ	0xFF8
  9267                           tblptrh	equ	0xFF7
  9268                           tblptrl	equ	0xFF6
  9269                           tablat	equ	0xFF5
  9270                           prodh	equ	0xFF4
  9271                           prodl	equ	0xFF3
  9272                           indf0	equ	0xFEF
  9273                           postinc0	equ	0xFEE
  9274                           postdec0	equ	0xFED
  9275                           preinc0	equ	0xFEC
  9276                           plusw0	equ	0xFEB
  9277                           fsr0h	equ	0xFEA
  9278                           fsr0l	equ	0xFE9
  9279                           wreg	equ	0xFE8
  9280                           indf1	equ	0xFE7
  9281                           postinc1	equ	0xFE6
  9282                           postdec1	equ	0xFE5
  9283                           preinc1	equ	0xFE4
  9284                           plusw1	equ	0xFE3
  9285                           fsr1h	equ	0xFE2
  9286                           fsr1l	equ	0xFE1
  9287                           bsr	equ	0xFE0
  9288                           indf2	equ	0xFDF
  9289                           postinc2	equ	0xFDE
  9290                           postdec2	equ	0xFDD
  9291                           preinc2	equ	0xFDC
  9292                           plusw2	equ	0xFDB
  9293                           fsr2h	equ	0xFDA
  9294                           fsr2l	equ	0xFD9
  9295                           status	equ	0xFD8

Data Sizes:
    Strings     133
    Constant    0
    Data        7
    BSS         95
    Persistent  0
    Stack       0

Auto Spaces:
    Space          Size  Autos    Used
    COMRAM           94     91      91
    BANK0           160     97     119
    BANK1           256      0      80
    BANK2           256      0       0
    BANK3           256      0       0
    BANK4           256      0       0
    BANK5           256      0       0
    BANK6           256      0       0
    BANK7           256      0       0

Pointer List with Targets:

    dtoa@fp	PTR struct _IO_FILE size(1) Largest target is 11
		 -> sprintf@f(BANK0[11]), 

    efgtoa@fp	PTR struct _IO_FILE size(1) Largest target is 11
		 -> sprintf@f(BANK0[11]), 

    Escreve_LCD@caracter	PTR unsigned char  size(2) Largest target is 17
		 -> main@lcd_buffer(BANK0[17]), STR_1(CODE[13]), STR_10(CODE[17]), STR_11(CODE[8]), 
		 -> STR_12(CODE[17]), STR_13(CODE[11]), STR_14(CODE[17]), STR_15(CODE[13]), 
		 -> STR_2(CODE[12]), STR_3(CODE[13]), STR_6(CODE[17]), STR_7(CODE[13]), 
		 -> STR_8(CODE[17]), STR_9(CODE[14]), 

    f$.$buffer	PTR unsigned char  size(1) Largest target is 17
		 -> main@lcd_buffer(BANK0[17]), 

    f$.$source	PTR const unsigned char  size(2) Largest target is 0

    fputc@fp	PTR struct _IO_FILE size(1) Largest target is 11
		 -> sprintf@f(BANK0[11]), 

    fputc@fp$.$buffer	PTR unsigned char  size(1) Largest target is 17
		 -> main@lcd_buffer(BANK0[17]), 

    fputc@fp$.$source	PTR const unsigned char  size(2) Largest target is 0

    fputs@fp	PTR struct _IO_FILE size(1) Largest target is 11
		 -> sprintf@f(BANK0[11]), 

    fputs@s	PTR const unsigned char  size(2) Largest target is 80
		 -> dbuf(BANK1[80]), 

    memcpy@d	PTR unsigned char  size(2) Largest target is 80
		 -> dbuf(BANK1[80]), 

    memcpy@d1	PTR void  size(2) Largest target is 80
		 -> dbuf(BANK1[80]), 

    memcpy@s	PTR const unsigned char  size(2) Largest target is 80
		 -> dbuf(BANK1[80]), 

    memcpy@s1	PTR const void  size(2) Largest target is 80
		 -> dbuf(BANK1[80]), 

    pad@buf	PTR unsigned char  size(2) Largest target is 80
		 -> dbuf(BANK1[80]), 

    pad@fp	PTR struct _IO_FILE size(1) Largest target is 11
		 -> sprintf@f(BANK0[11]), 

    read_prec_or_width@ap	PTR PTR void [1] size(1) Largest target is 1
		 -> sprintf@ap(BANK0[1]), 

    read_prec_or_width@fmt	PTR PTR const unsigned char  size(1) Largest target is 1
		 -> vfprintf@cfmt(COMRAM[1]), 

    S1200$buffer	PTR unsigned char  size(1) Largest target is 17
		 -> main@lcd_buffer(BANK0[17]), 

    S1200$source	PTR const unsigned char  size(2) Largest target is 0

    sp__memcpy	PTR void  size(2) Largest target is 80
		 -> dbuf(BANK1[80]), 

    sp__strcpy	PTR unsigned char  size(2) Largest target is 80
		 -> dbuf(BANK1[80]), 

    sprintf@ap	PTR void [1] size(1) Largest target is 2
		 -> ?_sprintf(BANK0[2]), 

    sprintf@fmt	PTR const unsigned char  size(1) Largest target is 14
		 -> STR_4(CODE[10]), STR_5(CODE[14]), 

    sprintf@s	PTR unsigned char  size(1) Largest target is 17
		 -> main@lcd_buffer(BANK0[17]), 

    strcpy@d	PTR unsigned char  size(2) Largest target is 80
		 -> dbuf(BANK1[80]), 

    strcpy@dest	PTR unsigned char  size(2) Largest target is 80
		 -> dbuf(BANK1[80]), 

    strcpy@src	PTR const unsigned char  size(1) Largest target is 4
		 -> STR_16(CODE[4]), STR_19(CODE[4]), 

    vfpfcnvrt@ap	PTR PTR void  size(1) Largest target is 1
		 -> sprintf@ap(BANK0[1]), 

    vfpfcnvrt@cp	PTR unsigned char  size(1) Largest target is 14
		 -> STR_4(CODE[10]), STR_5(CODE[14]), 

    vfpfcnvrt@fmt	PTR PTR unsigned char  size(1) Largest target is 1
		 -> vfprintf@cfmt(COMRAM[1]), 

    vfpfcnvrt@fp	PTR struct _IO_FILE size(1) Largest target is 11
		 -> sprintf@f(BANK0[11]), 

    vfprintf@ap	PTR PTR void  size(1) Largest target is 1
		 -> sprintf@ap(BANK0[1]), 

    vfprintf@cfmt	PTR unsigned char  size(1) Largest target is 14
		 -> STR_4(CODE[10]), STR_5(CODE[14]), 

    vfprintf@fmt	PTR const unsigned char  size(1) Largest target is 14
		 -> STR_4(CODE[10]), STR_5(CODE[14]), 

    vfprintf@fp	PTR struct _IO_FILE size(1) Largest target is 11
		 -> sprintf@f(BANK0[11]), 


Critical Paths under _main in COMRAM

    _sprintf->_vfprintf
    _vfprintf->_vfpfcnvrt
    _vfpfcnvrt->_efgtoa
    _efgtoa->___flge
    _floorf->___fldiv
    ___flsub->___flmul
    ___flge->___flmul
    _dtoa->_pad
    _pad->_fputs
    _fputs->_fputc
    _abs->___awmod
    _calculaTemperaturaSimples->___flmul
    ___flmul->___fldiv
    ___fldiv->___xxtofl
    _Posiciona_LCD->_Comando_LCD
    _Inicializa_LCD->_Comando_LCD
    _Escreve_LCD->_Escreve_C_LCD

Critical Paths under _isr in COMRAM

    None.

Critical Paths under _main in BANK0

    _main->_sprintf
    _sprintf->_vfprintf
    _vfprintf->_vfpfcnvrt
    _vfpfcnvrt->_efgtoa

Critical Paths under _isr in BANK0

    None.

Critical Paths under _main in BANK1

    None.

Critical Paths under _isr in BANK1

    None.

Critical Paths under _main in BANK2

    None.

Critical Paths under _isr in BANK2

    None.

Critical Paths under _main in BANK3

    None.

Critical Paths under _isr in BANK3

    None.

Critical Paths under _main in BANK4

    None.

Critical Paths under _isr in BANK4

    None.

Critical Paths under _main in BANK5

    None.

Critical Paths under _isr in BANK5

    None.

Critical Paths under _main in BANK6

    None.

Critical Paths under _isr in BANK6

    None.

Critical Paths under _main in BANK7

    None.

Critical Paths under _isr in BANK7

    None.

Call Graph Tables:

 ---------------------------------------------------------------------------------
 (Depth) Function   	        Calls       Base Space   Used Autos Params    Refs
 ---------------------------------------------------------------------------------
 (0) _main                                                27    27      0   26908
                                             89 COMRAM     2     2      0
                                             72 BANK0     25    25      0
                        _Escreve_LCD
                     _Inicializa_LCD
                      _Posiciona_LCD
                             ___flge
          _calculaTemperaturaSimples
                   _read_adc_channel
                          _setup_adc
                            _sprintf
 ---------------------------------------------------------------------------------
 (1) _sprintf                                             20    14      6   21510
                                             54 BANK0     18    12      6
                           _vfprintf
 ---------------------------------------------------------------------------------
 (2) _vfprintf                                             4     1      3   21174
                                             88 COMRAM     1     1      0
                                             51 BANK0      3     0      3
                          _vfpfcnvrt
 ---------------------------------------------------------------------------------
 (3) _vfpfcnvrt                                           11     8      3   20929
                                             84 COMRAM     4     1      3
                                             44 BANK0      7     7      0
                               _dtoa
                             _efgtoa
                              _fputc
                 _read_prec_or_width
 ---------------------------------------------------------------------------------
 (4) _read_prec_or_width                                   7     5      2     272
                                              0 COMRAM     7     5      2
 ---------------------------------------------------------------------------------
 (4) _efgtoa                                              53    47      6   16457
                                             76 COMRAM     8     2      6
                                              0 BANK0     44    44      0
                            ___fladd
                            ___fldiv
                             ___fleq
                             ___flge
                            ___flmul
                            ___flneg
                            ___flsub
                            ___fltol
                      ___fpclassifyf
                             _floorf
                               _labs
                             _memcpy
                                _pad
                             _strcpy
 ---------------------------------------------------------------------------------
 (5) _strcpy                                               6     3      3     115
                                              0 COMRAM     6     3      3
 ---------------------------------------------------------------------------------
 (5) _memcpy                                              11     5      6     217
                                              0 COMRAM    11     5      6
 ---------------------------------------------------------------------------------
 (5) _labs                                                 8     4      4     102
                                              0 COMRAM     8     4      4
 ---------------------------------------------------------------------------------
 (5) _floorf                                              20    16      4     495
                                             39 COMRAM    20    16      4
                            ___fldiv (ARG)
 ---------------------------------------------------------------------------------
 (5) ___fpclassifyf                                       14    10      4     201
                                              0 COMRAM    14    10      4
 ---------------------------------------------------------------------------------
 (5) ___fltol                                             10     6      4     346
                                              0 COMRAM    10     6      4
 ---------------------------------------------------------------------------------
 (5) ___flsub                                              8     0      8    3031
                                             64 COMRAM     8     0      8
                            ___fladd
                            ___flmul (ARG)
 ---------------------------------------------------------------------------------
 (6) ___fladd                                             16     8      8    2954
                                              0 COMRAM    16     8      8
 ---------------------------------------------------------------------------------
 (5) ___flneg                                              4     0      4      68
                                              0 COMRAM     4     0      4
 ---------------------------------------------------------------------------------
 (5) ___flge                                              12     4      8     296
                                             64 COMRAM    12     4      8
                            ___flmul (ARG)
 ---------------------------------------------------------------------------------
 (5) ___fleq                                              12     4      8     142
                                              0 COMRAM    12     4      8
 ---------------------------------------------------------------------------------
 (4) _dtoa                                                12     9      3    2707
                                             22 COMRAM    12     9      3
                            ___awdiv
                            ___awmod
                                _abs
                                _pad
 ---------------------------------------------------------------------------------
 (5) _pad                                                  8     3      5    1115
                                             14 COMRAM     8     3      5
                              _fputc
                              _fputs
 ---------------------------------------------------------------------------------
 (6) _fputs                                                6     3      3     487
                                              8 COMRAM     6     3      3
                              _fputc
 ---------------------------------------------------------------------------------
 (4) _fputc                                                8     5      3     335
                                              0 COMRAM     8     5      3
                              _putch
 ---------------------------------------------------------------------------------
 (5) _putch                                                1     1      0       0
 ---------------------------------------------------------------------------------
 (5) _abs                                                  4     2      2      96
                                              6 COMRAM     4     2      2
                            ___awmod (ARG)
 ---------------------------------------------------------------------------------
 (5) ___awmod                                              6     2      4     439
                                              0 COMRAM     6     2      4
 ---------------------------------------------------------------------------------
 (5) ___awdiv                                              8     4      4     451
                                              0 COMRAM     8     4      4
 ---------------------------------------------------------------------------------
 (1) _setup_adc                                            0     0      0       0
 ---------------------------------------------------------------------------------
 (1) _read_adc_channel                                     5     3      2      29
                                              0 COMRAM     5     3      2
 ---------------------------------------------------------------------------------
 (1) _calculaTemperaturaSimples                            8     4      4    4359
                                             64 COMRAM     8     4      4
                            ___fldiv
                            ___flmul
                           ___xxtofl
 ---------------------------------------------------------------------------------
 (2) ___xxtofl                                            14    10      4     337
                                              0 COMRAM    14    10      4
 ---------------------------------------------------------------------------------
 (5) ___flmul                                             25    17      8    2235
                                             39 COMRAM    25    17      8
                            ___fldiv (ARG)
                           ___xxtofl (ARG)
 ---------------------------------------------------------------------------------
 (5) ___fldiv                                             25    17      8    1719
                                             14 COMRAM    25    17      8
                           ___xxtofl (ARG)
 ---------------------------------------------------------------------------------
 (1) _Posiciona_LCD                                        3     2      1     213
                                              2 COMRAM     3     2      1
                        _Comando_LCD
 ---------------------------------------------------------------------------------
 (1) _Inicializa_LCD                                       2     2      0      75
                                              2 COMRAM     2     2      0
                        _Comando_LCD
 ---------------------------------------------------------------------------------
 (2) _Comando_LCD                                          2     2      0      29
                                              0 COMRAM     2     2      0
 ---------------------------------------------------------------------------------
 (1) _Escreve_LCD                                          3     1      2      89
                                              2 COMRAM     3     1      2
                      _Escreve_C_LCD
 ---------------------------------------------------------------------------------
 (2) _Escreve_C_LCD                                        2     2      0      29
                                              0 COMRAM     2     2      0
 ---------------------------------------------------------------------------------
 Estimated maximum stack depth 6
 ---------------------------------------------------------------------------------
 (Depth) Function   	        Calls       Base Space   Used Autos Params    Refs
 ---------------------------------------------------------------------------------
 (9) _isr                                                  0     0      0       0
 ---------------------------------------------------------------------------------
 Estimated maximum stack depth 9
 ---------------------------------------------------------------------------------

 Call Graph Graphs:

 _main (ROOT)
   _Escreve_LCD
     _Escreve_C_LCD
   _Inicializa_LCD
     _Comando_LCD
   _Posiciona_LCD
     _Comando_LCD
   ___flge
     ___flmul (ARG)
       ___fldiv (ARG)
         ___xxtofl (ARG)
       ___xxtofl (ARG)
   _calculaTemperaturaSimples
     ___fldiv
     ___flmul
     ___xxtofl
   _read_adc_channel
   _setup_adc
   _sprintf
     _vfprintf
       _vfpfcnvrt
         _dtoa
           ___awdiv
           ___awmod
           _abs
             ___awmod (ARG)
           _pad
             _fputc
               _putch
             _fputs
               _fputc
         _efgtoa
           ___fladd
           ___fldiv
           ___fleq
           ___flge
           ___flmul
           ___flneg
           ___flsub
             ___fladd
             ___flmul (ARG)
           ___fltol
           ___fpclassifyf
           _floorf
             ___fldiv (ARG)
           _labs
           _memcpy
           _pad
           _strcpy
         _fputc
         _read_prec_or_width

 _isr (ROOT)

Address spaces:
Name               Size   Autos  Total    Usage
BIGRAM            2047      0       0      0.0%
BITBANK7           256      0       0      0.0%
BANK7              256      0       0      0.0%
BITBANK6           256      0       0      0.0%
BANK6              256      0       0      0.0%
BITBANK5           256      0       0      0.0%
BANK5              256      0       0      0.0%
BITBANK4           256      0       0      0.0%
BANK4              256      0       0      0.0%
BITBANK3           256      0       0      0.0%
BANK3              256      0       0      0.0%
BITBANK2           256      0       0      0.0%
BANK2              256      0       0      0.0%
BITBANK1           256      0       0      0.0%
BANK1              256      0      80     31.2%
BITBANK0           160      0       0      0.0%
BANK0              160     97     119     74.4%
BITCOMRAM           94      0       0      0.0%
COMRAM              94     91      91     96.8%
BITBIGSFRlh         61      0       0      0.0%
BITBIGSFRh          61      0       0      0.0%
BITBIGSFRll         34      0       0      0.0%
STACK                0      0       0      0.0%
DATA                 0      0     289      0.0%


Microchip Technology PIC18 Macro Assembler V3.00 build 20241204225717 
Symbol Table                                                                                   Tue Jun 24 11:10:52 2025

                      ___fldiv@aexp 0027                        ___fldiv@bexp 0026  
                      ___fldiv@sign 001F                      ?_Escreve_C_LCD 0001  
                                l51 3940                                  l62 3542  
                                l71 35B0                                  l65 3836  
                                l92 3778                                  l86 396A  
                                l79 3658                                  l89 3754  
                      ___awdiv@sign 0006                                 l101 34D2  
                               l109 163E                                 l353 311A  
                               l419 2E56                                 l381 3272  
                               l366 31C8                                 l704 2518  
                               l392 2F5A                                 l800 38A8  
                               l706 237C                                 l650 1A96  
                               l715 23C2                                 l387 2F14  
                               l651 1A84                                 l716 23E0  
                               l740 2188                                 l396 38E0  
                               l652 1A4A                                 l900 1052  
                               l717 2438                                 l709 2340  
                               l718 2426                                 l830 33F8  
                               l743 201E                                 l744 203C  
                               l736 1E28                                 l840 2BE0  
                               l664 1C3E                                 l753 214A  
                               l745 2094                                 l833 3436  
                               l746 2082                                 l842 2BE8  
                               l922 33C0                                 l835 3456  
                               l843 2C2E                                 l683 1D26  
                               l667 1BB0                                 l659 1D62  
                               l780 2B9E                                 l676 1C7E  
                               l692 3734                                 l677 1C6C  
                               l870 0C0C                                 l918 33B8  
                               l791 2B36                                 l784 2ADA  
                               l856 2D50                                 l872 0A52  
                               l944 26B0                                 l960 37B8  
                               l777 2A42                                 l970 3058  
                               l938 27D8                                 l867 12D4  
                               l975 38FC                                 l984 29EA  
                               l978 3914                                 l987 292E  
                               l998 3606                                 _abs 38E2  
                               _pad 33C2                                 _isr 0008  
                      ___awmod@sign 0006                         main@adc_gas 00BF  
                               wreg 0FE8                        ___flmul@aexp 0035  
                      ___flmul@bexp 003A                       ??_Escreve_LCD 0005  
                      ___flmul@sign 0034                        ___flmul@temp 003F  
                      ___flmul@prod 003B          ?_calculaTemperaturaSimples 0041  
                Comando_LCD@comando 0002                        ___fltol@exp1 000A  
                              l1004 36A8                                l1016 331C  
                              l1024 37F8                                l1033 3870  
                              l1027 3974                                ?_abs 0007  
                              l4011 1B00                                l4003 1AC8  
                              l4101 218A                                l4013 1B04  
                              l4005 1AD8                                l4021 1B24  
                              l4111 21C6                                l4103 2196  
                              l4023 1B4A                                l4031 1BA0  
                              l4015 1B12                                l4007 1AE6  
                              l4121 21F4                                l4113 21D6  
                              l4105 21A4                                l4041 1BF4  
                              l4033 1BC6                                l4025 1B7E  
                              l4017 1B14                                l4009 1AF4  
                              l5001 2744                                l4203 2448  
                              l4211 2490                                l4131 222A  
                              l4123 21FA                                l4115 21D8  
                              l4107 21A6                                l4051 1C1E  
                              l4043 1C02                                l4035 1BD6  
                              l4027 1B80                                l4019 1B1E  
                              l5011 2792                                l5003 275A  
                              l4221 24F4                                l4213 24AA  
                              l4205 2454                                l4141 2268  
                              l4133 223A                                l4125 2208  
                              l4109 21B6                                l4117 21DE  
                              l4301 1F0A                                l4053 1C2E  
                              l4045 1C04                                l4029 1B90  
                              l5005 2768                                l5013 27AA  
                              l5101 14D4                                l4223 24F8  
                              l4215 24C0                                l4207 2462  
                              l4143 2278                                l4151 2298  
                              l4135 223C                                l4127 220A  
                              l4119 21EE                                l4311 1F78  
                              l4303 1F24                                l4063 1C8E  
                              l4071 1CE4                                l4047 1C12  
                              l4039 1BEA                                l4055 1C30  
                              l5023 377A                                l5111 1694  
                              l5103 1622                                l3601 391E  
                              l4225 2506                                l4217 24DA  
                              l4209 248C                                l4161 22D6  
                              l4153 22A8                                l4145 2280  
                              l4129 221A                                l4137 2242  
                              l4321 200E                                l4313 1FA2  
                              l4305 1F34                                l4241 1D7E  
                              l5033 3458                                l4401 30EC  
                              l4081 1D3A                                l4073 1CF4  
                              l4065 1C9A                                l4057 1C4E  
                              l4049 1C1A                                l5017 27B6  
                              l5025 3782                                l5041 387C  
                              l5121 16E6                                l5113 16AA  
                              l5105 1652                                l3611 3800  
                              l3603 3920                                l4227 250C  
                              l4219 24F2                                l4171 231C  
                              l4163 22E6                                l4155 22A8  
                              l4147 2284                                l4139 2252  
                              l4323 201C                                l4315 1FD8  
                              l4307 1F50                                l4251 1DB6  
                              l4243 1D80                                l5035 34C2  
                              l4411 3112                                l4403 30EE  
                              l4083 1D3C                                l4075 1D04  
                              l4067 1CA8                                l4059 1C64  
                              l5027 3792                                l5043 3884  
                              l5131 173A                                l5123 16FE  
                              l5115 16B4                                l5107 166E  
                              l5051 12D6                                l3621 3826  
                              l3613 380E                                l3701 3548  
                              l3605 392E                                l4229 250E  
                              l4181 236A                                l4173 2330  
                              l4165 22F6                                l4333 20A4  
                              l4341 20EC                                l4325 202E  
                              l4317 1FE6                                l4309 1F5C  
                              l4261 1DE2                                l4253 1DC6  
                              l4245 1D90                                l4237 1D64  
                              l4405 30F4                                l4421 3134  
                              l4093 37BA                                l4085 1D42  
                              l4077 1D24                                l4069 1CE2  
                              l5029 37AE                                l5045 388C  
                              l5141 178E                                l5133 1754  
                              l5125 1708                                l5117 16BE  
                              l5109 168A                                l5061 12FC  
                              l5053 12DA                                l3615 3812  
                              l3703 356C                                l3607 3930  
                              l3711 360A                                l4191 23B2  
                              l4183 237A                                l4175 233E  
                              l4167 2306                                l4159 22BC  
                              l4351 214E                                l4343 2106  
                              l4335 20B0                                l4327 204C  
                              l4319 2004                                l4271 1E38  
                              l4263 1DF2                                l4255 1DCC  
                              l4247 1DA0                                l4239 1D70  
                              l3631 2A68                                l3623 29EE  
                              l4407 30FA                                l4431 3168  
                              l4423 3138                                l4415 311C  
                              l4095 37C6                                l4087 1D50  
                              l4079 1D34                                l4511 2DBC  
                              l4503 2D7C                                l5047 389C  
                              l5039 3872                                l5151 17E0  
                              l5127 1720                                l5135 175E  
                              l5119 16DC                                l5071 1306  
                              l5063 12FE                                l5055 12DE  
                              l3617 3814                                l3609 37FC  
                              l3705 3570                                l3721 3622  
                              l3713 360E                                l4193 23C0  
                              l4185 238C                                l4177 234A  
                              l4169 230C                                l4361 2178  
                              l4353 215E                                l4345 211A  
                              l4337 20BE                                l4329 207A  
                              l4281 1E72                                l4273 1E48  
                              l4265 1E02                                l4257 1DD2  
                              l4249 1DB0                                l3641 2AC2  
                              l3625 29FE                                l4409 310A  
                              l4441 31A2                                l4433 3170  
                              l4425 3146                                l4417 311E  
                              l4097 37D4                                l4089 1D52  
                              l4521 2DEC                                l4513 2DCA  
                              l4505 2DA6                                l4601 2864  
                              l5161 1850                                l5153 17EA  
                              l5137 1774                                l5145 17AC  
                              l5129 172A                                l5081 1310  
                              l5073 1308                                l5065 1300  
                              l5057 12E2                                l3619 3824  
                              l3707 3580                                l3723 3630  
                              l3715 3610                                l4187 23A2  
                              l4195 23D2                                l4179 2368  
                              l4355 216C                                l4347 2134  
                              l4339 20E8                                l4291 1EC4  
                              l4283 1E88                                l4267 1E12  
                              l4259 1DE0                                l3651 2B26  
                              l3643 2AC4                                l3635 2A7C  
                              l3627 2A0C                                l3731 3738  
                              l4371 305A                                l4435 317E  
                              l4443 31A8                                l4427 314E  
                              l4419 312C                                l4099 37D8  
                              l4451 31CA                                l4531 2E16  
                              l4523 2DF6                                l4507 2DA8  
                              l4603 2872                                l4611 2952  
                              l5163 1856                                l5155 181C  
                              l5147 17B6                                l5139 177E  
                              l5091 1338                                l5083 1312  
                              l5075 130A                                l5067 1302  
                              l5059 12EC                                l3725 3632  
                              l3717 3616                                l3709 3608  
                              l4197 23F0                                l4189 23A8  
                              l4357 216E                                l4349 2144  
                              l4293 1ED2                                l4285 1E94  
                              l4277 1E5C                                l4269 1E18  
                              l3661 2B7E                                l3653 2B44  
                              l3645 2AD0                                l3637 2A84  
                              l3629 2A52                                l3733 374A  
                              l4381 3084                                l4373 305C  
                              l4445 31B8                                l4437 3194  
                              l4429 3160                                l4541 33C2  
                              l4461 326A                                l4453 31F8  
                              l3901 18BA                                l4365 36F0  
                              l4533 2E26                                l4509 2DB8  
                              l4613 298E                                l4701 08F4  
                              l5157 1826                                l5165 1872  
                              l5149 17C6                                l5093 1348  
                              l5085 1314                                l5077 130C  
                              l5069 1304                                ?_pad 000F  
                              l3727 3640                                l3719 3618  
                              l4199 241E                                l4359 2174  
                              l4295 1EDE                                l4287 1EAC  
                              l4279 1E68                                l3663 2B8C  
                              l3655 2B46                                l3647 2B0C  
                              l3639 2A90                                l3735 3752  
                              l4391 30B2                                l4383 308C  
                              l4375 306A                                l4447 31C0  
                              l4439 319C                                l4551 3414  
                              l4543 33D2                                l4463 3270  
                              l4455 3208                                l4471 2E96  
                              l3911 18FA                                l3903 18C8  
                              l4367 3700                                l4535 2E36  
                              l4519 2DE2                                l4615 29A2  
                              l4607 28E2                                l4631 368A  
                              l4623 365A                                l4711 0942  
                              l4703 0904                                l5167 187C  
                              l5159 1836                                l5095 135A  
                              l5087 131E                                l5079 130E  
                              l3681 34D8                                l4297 1EEE  
                              l4289 1EB8                                l3665 2B8E  
                              l3657 2B4A                                l3649 2B18  
                              l3737 3762                                l3729 395E  
                              l4393 30BA                                l4385 3090  
                              l4377 3072                                l4553 3418  
                              l4545 33E2                                l4641 2BD4  
                              l4457 3236                                l4481 2F02  
                              l4473 2EC4                                l3921 192A  
                              l3913 18FC                                l3905 18CA  
                              l4537 2E46                                l4529 2E0A  
                              l4561 2F5C                                l4617 29CA  
                              l4609 291E                                l4625 366E  
                              l4633 368E                                l4801 0D26  
                              l4721 097A                                l4713 0954  
                              l4705 0910                                l5169 188C  
                              l5097 14A8                                l5089 132E  
                              l3683 34DE                                l4299 1EFA  
                              l3659 2B6E                                l4395 30C8  
                              l4387 3098                                l4379 3076  
                              l4555 3446                                l4547 33F0  
                              l4651 2C22                                l4643 2BF0  
                              l4635 2BA0                                l4459 3246  
                              l4483 2F52                                l4475 2ED4  
                              l4467 2E58                                l4491 38C0  
                              l3931 1952                                l3923 192C  
                              l3907 18DA                                l3915 1902  
                              l4563 2F7C                                l4619 29DA  
                              l4627 367A                                l4811 0E0A  
                              l4803 0D7E                                l4731 09D8  
                              l4723 0984                                l4715 0958  
                              l4707 0918                                l5099 14C4  
                              l3597 3918                                l3685 34E8  
                              l3693 3506                                l4397 30CE  
                              l4389 30AA                                l4557 38E2  
                              l4549 3404                                l4661 2C76  
                              l4653 2C2A                                l4645 2C00  
                              l4637 2BC4                                l4485 2F58  
                              l4477 2EE2                                l4469 2E86  
                              l4493 38D0                                l3941 198A  
                              l3933 1962                                l3925 1932  
                              l3917 1912                                l3909 18EA  
                              l4565 2FBA                                l4573 2FFA  
                              l4629 367E                                l4901 1232  
                              l4821 0EA4                                l4813 0E3C  
                              l4805 0DB2                                l4733 09DC  
                              l4717 095E                                l4709 091C  
                              l3599 391A                                l3687 34F2  
                              l3695 352C                                l3679 34D6  
                              l4399 30E4                                l4559 38F0  
                              l4671 2CCA                                l4663 2C7C  
                              l4655 2C36                                l4647 2C06  
                              l4639 2BC6                                l4479 2EF4  
                              l3951 19B6                                l3943 199C  
                              l3935 1972                                l3927 1940  
                              l3919 1918                                l4575 300C  
                              l4567 2FE2                                l4591 35D4  
                              l4583 3838                                l4911 129A  
                              l4903 1248                                l4831 0F7C  
                              l4823 0ED8                                l4815 0E52  
                              l4807 0DB8                                l4751 0A62  
                              l4735 09E2                                l4719 0966  
                              l4727 09A0                                l3697 353C  
                              l3689 34FC                                l4681 2D24  
                              l4673 2CE4                                l4665 2C82  
                              l4657 2C3E                                l4649 2C16  
                              l4489 38AA                                l3961 19CA  
                              l3953 19BA                                l3945 19AA  
                              l3937 1974                                l3929 1942  
                              l4497 2D52                                l4569 2FEE  
                              l4585 3840                                l4913 12B0  
                              l4905 124E                                l4841 0FA4  
                              l4825 0F2E                                l4833 0F80  
                              l4817 0E84                                l4809 0DD6  
                              l4761 0B4A                                l4753 0A68  
                              l4737 09EA                                l4729 09C6  
                              l4745 0A02                                l4921 3326  
                              l3699 3544                                l3891 329E  
                              l4683 2D34                                l4675 2CFE  
                              l4659 2C44                                l4667 2C9E  
                              l3971 19DE                                l3963 19CE  
                              l3955 19BE                                l3947 19AE  
                              l3939 197A                                l4499 2D68  
                              l4579 3050                                l4595 27DA  
                              l4587 35B2                                l4915 12B8  
                              l4907 126C                                l4851 1072  
                              l4843 0FB0                                l4835 0F90  
                              l4827 0F34                                l4819 0E94  
                              l4763 0B5E                                l4771 0BDA  
                              l4755 0A9C                                l4747 0A1C  
                              l4691 08AA                                l4923 3348  
                              l4931 3392                                l3893 32BA  
                              l3885 3274                                l4669 2CB8  
                              l4677 2D0E                                l3981 1A32  
                              l3973 19E2                                l3965 19D2  
                              l3957 19C2                                l3949 19B2  
                              l4597 27FA                                l4589 35C0  
                              l4909 128A                                l4861 10A4  
                              l4853 1082                                l4845 1028  
                              l4837 0F98                                l4829 0F68  
                              l4781 0C40                                l4773 0C14  
                              l4765 0B92                                l4757 0ADA  
                              l4693 08AE                                l4925 3350  
                              l4941 2556                                l4933 251A  
                              l3895 32EC                                l3887 3284  
                              l4679 2D1E                                l3991 1A76  
                              l3983 1A42                                l3975 19E6  
                              l3967 19D6                                l3959 19C6  
                              l4599 2850                                l4871 10D8  
                              l4863 10A8                                l4855 1086  
                              l4847 1048                                l4839 0F9C  
                              l4791 0C8E                                l4783 0C44  
                              l4775 0C24                                l4767 0B9A  
                              l4759 0B0C                                l4695 08D2  
                              l4687 0888                                l4927 336C  
                              l4919 331E                                l4951 2572  
                              l4943 255C                                l4935 253C  
                              l3889 3294                                l3993 1A78  
                              l3985 1A58                                l3969 19DA  
                              l3977 19EA                                l4881 1176  
                              l4873 10DC                                l4865 10AE  
                              l4857 108C                                l4849 1064  
                              l4785 0C56                                l4793 0C96  
                              l4777 0C30                                l4697 08DC  
                              l4689 089C                                l4929 338A  
                              l4961 25CE                                l4945 255E  
                              l4953 2590                                l4937 2544  
                              l3995 1A82                                l3987 1A64  
                              l3979 1A16                                l3899 18AE  
                              l4891 11CA                                l4875 10E2  
                              l4859 1094                                l4867 10B4  
                              l4883 117A                                l4795 0C9E  
                              l4787 0C64                                l4779 0C38  
                              l4699 08E4                                l4971 2634  
                              l4963 25F0                                l4955 25A0  
                              l4947 256A                                l4939 2552  
                              ?_isr 0001                                l3997 1AA4  
                              l3989 1A68                                l4893 11FA  
                              l4885 1198                                l4877 113A  
                              l4869 10C6                                l4797 0CAE  
                              l4789 0C7C                                l4981 2686  
                              l4973 2650                                l4965 25F8  
                              l4957 25B4                                l3999 1AB4  
                              l4895 1208                                l4887 11B4  
                              l4879 116E                                l4799 0CC2  
                              l4991 26B6                                l4983 2690  
                              l4975 2668                                l4967 260C  
                              l4959 25C4                                l4897 1220  
                              l4889 11BC                                l4993 26D4  
                              l4985 26A2                                l4977 2672  
                              l4969 2618                                l4995 26F4  
                              l4987 26A8                                l4997 271C  
                              STR_1 083B                                STR_2 0855  
                              STR_3 083B                                STR_4 086C  
                              STR_5 0812                                STR_6 0801  
                              STR_7 082E                                STR_8 0801  
                              STR_9 0820                                _LATD 0F8C  
                              u6000 2106                                u5200 32EC  
                              u6001 2102                                u5201 32E8  
                              u6010 2134                                u5210 18C8  
                              u6011 2130                                u5211 18C4  
                              u6020 216C                                u6100 3146  
                              u5300 1A16                                u5220 18DA  
                              u6021 2168                                u6101 3142  
                              u5301 1A12                                u5221 18D6  
                              u6030 306A                                u6110 3160  
                              u5310 1A2E                                u5230 18EA  
                              u6031 3066                                u6111 315C  
                              u5311 1A28                                u5231 18E6  
                              u4600 2B36                                u6040 3084  
                              u6120 317E                                u6200 2EE2  
                              u5400 1B12                                u5320 1A30  
                              u5240 192A                                u7000 126C  
                              u4601 2B32                                u6041 3080  
                              u6121 317A                                u6201 2EDE  
                              u5401 1B0E                                u5241 1926  
                              u7001 1268                                u4610 2B44  
                              u6050 30AA                                u6130 3194  
                              u5170 3284                                u6210 2F02  
                              u5410 1B4A                                u5330 1A58  
                              u5250 1940                                u7010 128A  
                              u4611 2B40                                u6051 30A6  
                              u6131 3190                                u5171 3280  
                              u6211 2EFE                                u5411 1B46  
                              u5331 1A54                                u5251 193C  
                              u7011 1286                                u4620 2B7E  
                              u4540 29FE                                u4700 3762  
                              u6060 30C8                                u6140 31B8  
                              u5180 3294                                u6220 2F52  
                              u5500 1C64                                u5420 1B90  
                              u5340 1A76                                u5260 1952  
                              u6300 2E36                                u7020 129A  
                              u7100 2650                                u4621 2B7A  
                              u4541 29FA                                u4701 375E  
                              u6061 30C4                                u6141 31B4  
                              u5181 3290                                u6221 2F4E  
                              u5501 1C60                                u5421 1B8C  
                              u5341 1A72                                u5261 194E  
                              u6301 2E32                                u7021 1296  
                              u7101 264C                                u4630 2B8C  
                              u4550 2A0C                                u6070 30E4  
                              u5190 32BA                                u6310 33D2  
                              u6150 31F8                                u6230 38C0  
                              u5510 1C7A                                u5430 1BC6  
                              u5350 1A96                                u5270 1962  
                              u7030 3348                                u7110 26F0  
                              u4631 2B88                                u4551 2A08  
                              u6071 30E0                                u5191 32B6  
                              u6311 33CE                                u6151 31F4  
                              u6231 38BC                                u5511 1C76  
                              u5431 1BC2                                u5351 1A92  
                              u5271 195E                                u7031 3344  
                              u7111 26EC                                u4560 2A68  
                              u6080 310A                                u5600 37F8  
                              u6320 33F0                                u6160 3236  
                              u5520 1C8E                                u5440 1BD6  
                              u5360 1AA4                                u5280 199C  
                              u6240 2D68                                u7040 33B8  
                              u7120 37AE                                u7200 13D2  
                              u4561 2A64                                u6081 3106  
                              u5601 37F4                                u6321 33EC  
                              u6161 3232                                u5521 1C8A  
                              u5441 1BD2                                u5361 1AA0  
                              u5281 1998                                u6241 2D64  
                              u7041 33B4                                u7121 37AA  
                              u7201 13CA                                u4650 353C  
                              u5610 21A4                                u4570 2ABE  
                              u6090 312C                                u6330 3436  
                              u6170 326A                                u5530 1CA8  
                              u5450 1C02                                u5370 1AB4  
                              u5290 19AA                                u6250 2D9C  
                              u6410 3046                                u7050 253C  
                              u7130 135A                                u4651 3538  
                              u5611 21A0                                u4571 2ABA  
                              u6091 3128                                u6331 3432  
                              u6171 3266                                u5531 1CA4  
                              u5451 1BFE                                u5371 1AB0  
                              u5291 19A6                                u6411 3040  
                              u7051 2538                                u7131 1356  
                              u4660 3568                                u5700 233E  
                              u5620 21B6                                u4580 2B08  
                              u6340 3446                                u6180 2E86  
                              u5540 1CE2                                u5460 1C12  
                              u5380 1AE6                                u6260 2DCA  
                              u6420 3048                                u6500 2902  
                              u7060 25A0                                u7300 147A  
                              u7220 13F4                                u7140 136C  
                              u5701 233A                                u5621 21B2  
                              u4581 2B04                                u6341 3442  
                              u6181 2E82                                u5541 1CDE  
                              u5461 1C0E                                u5381 1AE2  
                              u6261 2DC6                                u6405 301E  
                              u7061 259C                                u7301 1472  
                              u7221 13EC                                u7141 1364  
                              u4670 35A0                                u5710 2368  
                              u5630 21C6                                u4590 2B26  
                              u6350 38F0                                u6190 2EC4  
                              u5550 1CF4                                u5470 1C2E  
                              u5390 1AF4                                u6270 2DDE  
                              u6510 291E                                u6430 3870  
                              u7070 25C4                                u5711 2364  
                              u5631 21C2                                u4591 2B22  
                              u6351 38EC                                u6191 2EC0  
                              u5551 1CF0                                u5471 1C2A  
                              u5391 1AF0                                u6271 2DDA  
                              u6255 2D92                                u6511 291A  
                              u6431 386C                                u7071 25C0  
                              u4680 35B0                                u5800 2462  
                              u5720 238C                                u5640 2208  
                              u6600 2C00                                u5560 1D04  
                              u5480 1C3E                                u6280 2E06  
                              u6360 2F9C                                u6520 2972  
                              u6440 35C0                                u7080 25F0  
                              u7320 1498                                u7240 1414  
                              u7160 138C                                u4681 35AC  
                              u5801 245E                                u5721 2388  
                              u5641 2204                                u6601 2BFC  
                              u5561 1D00                                u5481 1C3A  
                              u6281 2E02                                u6505 28F8  
                              u6441 35BC                                u7081 25EC  
                              u7321 1490                                u7241 140C  
                              u7161 1384                                u4690 3658  
                              u5810 24AA                                u5730 23A2  
                              u5650 221A                                u6610 2C16  
                              u5570 1D24                                u5490 1C4E  
                              u6290 2E26                                u6370 2FBA  
                              u6530 298E                                u6450 2822  
                              u7090 2634                                u7410 154C  
                              u7218 13D4                                u4667 355E  
                              u4691 3654                                u5811 24A6  
                              u5731 239E                                u5651 2216  
                              u6611 2C12                                u5571 1D20  
                              u5491 1C4A                                u6291 2E22  
                              u6371 2FB6                                u6531 298A  
                              u7091 2630                                u7411 1544  
                              u5820 24DA                                u5740 23C0  
                              u5660 222A                                u5900 1E38  
                              u6620 2CB8                                u5580 1D34  
                              u6380 2FE2                                u6540 29CA  
                              u6460 2850                                u6700 0904  
                              u7340 14D4                                u7260 1438  
                              u7180 13AE                                u4677 3596  
                              u5821 24D6                                u5741 23BC  
                              u5661 2226                                u5901 1E34  
                              u6621 2CB4                                u5581 1D30  
                              u6381 2FDE                                u6365 2F92  
                              u6541 29C6                                u6525 2968  
                              u6461 284C                                u6701 0900  
                              u7341 14D0                                u7261 1430  
                              u7181 13A6                                u5830 2506  
                              u5750 23E0                                u5670 2268  
                              u5910 1E48                                u6630 2CCA  
                              u5590 1D50                                u6390 300C  
                              u6470 2872                                u6550 36A8  
                              u6710 0942                                u7510 15F4  
                              u7430 156E                                u7350 14E6  
                              u7318 147C                                u7238 13F6  
                              u7158 136E                                u5831 2502  
                              u5751 23DC                                u5671 2264  
                              u5911 1E44                                u6631 2CC6  
                              u5591 1D4C                                u6391 3008  
                              u6471 286E                                u6455 2818  
                              u6551 36A4                                u6711 093E  
                              u7511 15EC                                u7431 1566  
                              u7351 14DE                                u5760 23F0  
                              u5680 22A8                                u5920 1FC2  
                              u5840 1D7E                                u6640 2CE4  
                              u6560 2BB0                                u6800 0C0C  
                              u6720 0954                                u7408 152A  
                              u7280 145A                                u5761 23EC  
                              u5681 22A4                                u5841 1D7A  
                              u6641 2CE0                                u6561 2BAA  
                              u6801 0C08                                u6721 0950  
                              u7281 1452                                u5770 241E  
                              u5690 231C                                u5930 201C  
                              u5850 1D90                                u6650 2CFE  
                              u6570 2BB2                                u6490 28DE  
                              u6810 0C24                                u6730 09C6  
                              u7530 1612                                u7450 158E  
                              u7370 1506                                u7338 149A  
                              u7258 1416                                u7178 138E  
                              u5771 241A                                u5691 2318  
                              u5931 2018                                u5851 1D8C  
                              u6651 2CFA                                u6491 28DA  
                              u6811 0C20                                u6731 09C2  
                              u7531 160A                                u7451 1586  
                              u7371 14FE                                u5780 2434  
                              u5940 203C                                u5860 1DA0  
                              u6660 2D0E                                u6580 2BC4  
                              u6900 0F7C                                u6820 0C56  
                              u6740 09D8                                u7508 15D6  
                              u7428 154E                                u5781 2430  
                              u5941 2038                                u5925 1FB8  
                              u5861 1D9C                                u6661 2D0A  
                              u6581 2BC0                                u6485 2886  
                              u6901 0F78                                u6821 0C52  
                              u6741 09D4                                u5790 2448  
                              u5950 204C                                u5870 1DE0  
                              u6670 2D1E                                u6590 2BD4  
                              u6486 2890                                u6910 1028  
                              u6830 0C64                                u6750 0A4E  
                              u7550 1720                                u7470 15B2  
                              u7390 1528                                u7278 143A  
                              u7198 13B0                                u5791 2444  
                              u5951 2048                                u5871 1DDC  
                              u6671 2D1A                                u6591 2BD0  
                              u6487 28A0                                u6911 1024  
                              u6831 0C60                                u6751 0A4A  
                              u7551 171C                                u7607 16F0  
                              u7471 15AA                                u7391 1520  
                              u5960 207A                                u5880 1DF2  
                              u6920 1064                                u6840 0C8E  
                              u6760 0ADA                                u6680 08AA  
                              u7560 1774                                u7528 15F6  
                              u7448 1570                                u7368 14E8  
                    _Inicializa_LCD 3608                                u5961 2076  
                              u5881 1DEE                                u6921 1060  
                              u6841 0C8A                                u6761 0AD6  
                              u6681 08A6                                u7617 1860  
                              u7561 1770                                i2l98 395A  
                              u5970 2090                                u5890 1E02  
                              u6930 1072                                u6850 0DD6  
                              u6770 0B0C                                u6690 08F4  
                              u7570 181C                                u7490 15D4  
                              u7298 145C                                u5971 208C  
                              u5891 1DFE                                u7627 374C  
                              u6931 106E                                u6851 0DD2  
                              u6771 0B08                                u6691 08F0  
                              u7571 1818                                u7491 15CC  
                              u5980 20A4                                u6940 10C6  
                              u6860 0E3C                                u6780 0B4A  
                              u7548 1614                                u7468 1590  
                              u7388 1508                                u7637 3638  
                              u5981 20A0                                u6941 10C2  
                              u6861 0E38                                u6781 0B46  
                              u5990 20BE                                u6950 1198  
                              u6870 0E84                                u6790 0BD6  
                              u7647 3926                                u5991 20BA  
                              u6951 1194                                u6871 0E80  
                              u6791 0BD2                                u6960 11B4  
                              u6880 0E94                                u7488 15B4  
                              u7657 3936                                u6961 11B0  
                              u6881 0E90                                u6970 121A  
                              u6890 0F2E                                u7667 3576  
                              u6971 1214                                u6891 0F2A  
                              u7587 14B2                                u6980 121C  
                              u7677 3806                                u7597 162C  
                              u6990 122E                                u7687 381A  
                              u6991 122A                                u7697 382C  
                              abs@a 0007                                _dbuf 0100  
                 Inicializa_LCD@ini 00D0                                _labs 35B2  
                              _main 12D6                                _dtoa 2BA0  
                              _prec 00CB                                pad@i 0015  
                              pad@p 0012                                fsr1h 0FE2  
                              fsr2h 0FDA                                indf1 0FE7  
                              indf2 0FDF                                fsr1l 0FE1  
                              fsr2l 0FD9                                btemp 005C  
                     ___fpclassifyf 2F5C                                prodh 0FF4  
                              prodl 0FF3                                start 000E  
               __end_of_Comando_LCD 3942                        main@adc_temp 00B9  
                   ___fldiv@new_exp 0020                        ___param_bank 0000  
                             ??_abs 0009                               ??_pad 0014  
                             ??_isr 0001                       ___fltol@sign1 0009  
                             ?_labs 0001                     __end_of___fladd 1D64  
                             ?_main 0001                               ?_dtoa 0017  
                   __end_of___fldiv 251A                     __end_of___awdiv 311C  
                   __end_of___flneg 38E2                               STR_10 0801  
                             STR_11 0876                               STR_12 0801  
                             STR_13 0861                               STR_14 0801  
                             STR_15 0848                               STR_16 087E  
                             STR_19 0882                     __end_of___awmod 31CA  
                   __end_of___flmul 218A                     __end_of___flsub 3736  
                   __end_of___fltol 2E58                     ___awdiv@divisor 0003  
                   ___awdiv@counter 0005                        vfpfcnvrt@fmt 0056  
                             _PORTD 0F83                               _PORTE 0F84  
                             _TRISD 0F95                               _TRISE 0F96  
             Escreve_C_LCD@caracter 0002              __end_of_Inicializa_LCD 365A  
                             _flags 00CD                 read_prec_or_width@c 0005  
               read_prec_or_width@n 0006                               _fputc 3274  
                             _fputs 37BA                               labs@a 0001  
                             pad@fp 000F                               _width 00C9  
                             _putch 3974                               dtoa@d 0018  
                             dtoa@i 0021                               dtoa@p 001C  
                             dtoa@s 0020                               dtoa@w 001E  
                             tablat 0FF5                 __end_of_Escreve_LCD 35B2  
                             ttemp5 005D                               ttemp6 0060  
                             ttemp7 0064                               status 0FD8  
                             wtemp8 005D                     __end_of_sprintf 38AA  
                    ?___fpclassifyf 0001                 Escreve_LCD@caracter 0003  
                   __initialization 36AA                     ??_Escreve_C_LCD 0001  
                      __end_of_labs 3608                        __end_of_main 18AE  
                      __end_of_dtoa 2D52  calculaTemperaturaSimples@adc_valor 0041  
                            ??_labs 0005                              ??_main 005A  
                            ??_dtoa 001A                       __activetblptr 0002  
        __end_of_read_prec_or_width 33C2                     ?_Inicializa_LCD 0001  
                            _ADCON0 0FC2                              _ADCON1 0FC1  
                            _ADCON2 0FC0                              ?_fputc 0001  
                            ?_fputs 0009                              _ADRESH 0FC4  
                            _ADRESL 0FC3                    ___awdiv@dividend 0001  
                            ?_putch 0001                         _Comando_LCD 3916  
                            i2l3761 3952                              i2l3759 3944  
                     vfpfcnvrt@done 008C                    __end_of___xxtofl 2BA0  
                      vfprintf@cfmt 0059                              ___flge 2E58  
                            ___fleq 31CA                           ??___fladd 0009  
                         ??___fldiv 0017                           ??___awdiv 0005  
                         ??___flneg 0005                           ??___awmod 0005  
                         ??___flmul 0030                           ??___flsub 0049  
                         ??___fltol 0005                              _efgtoa 0888  
                            _floorf 27DA                              _memcpy 365A  
              read_prec_or_width@ap 0002                              clear_0 36D0  
                            clear_1 36DC                    ___awdiv@quotient 0007  
                   ___awmod@divisor 0003                              isa$std 0001  
                   ___awmod@counter 0005                              pad@buf 0010  
                            dtoa@fp 0017                              _strcpy 3838  
                            fputc@c 0001                              fputs@c 000C  
                            fputs@i 000D                              fputs@s 0009  
                   ___fpclassifyf@e 0009                     ___fpclassifyf@u 000B  
                   ___fpclassifyf@x 0001                        __mediumconst 0800  
                            tblptrh 0FF7                              tblptrl 0FF6  
                            tblptru 0FF8                         _Escreve_LCD 3544  
                            putch@c 0001                    __end_of_vfprintf 37BA  
                         ??_sprintf 005A                          ___flge@ff1 0041  
                        ___flge@ff2 0045                     ??___fpclassifyf 0005  
                      ___xxtofl@arg 000B                        ___xxtofl@exp 000A  
                      ___xxtofl@val 0001                          ___fleq@ff1 0001  
                        ___fleq@ff2 0005                          __accesstop 0060  
           __end_of__initialization 36E2                          ___flneg@f1 0001  
                     ___rparam_used 0001                          ___fltol@f1 0001  
                   Inicializa_LCD@x 0004                      __pcstackCOMRAM 0001  
             __end_of_Posiciona_LCD 3544                        __pidataBANK0 396C  
                     __end_of_fputc 331E                       __end_of_fputs 37FA  
                     __end_of_putch 3976             read_adc_channel@channel 0005  
                      _alarme_ativo 00CF                             ??_fputc 0004  
                           ??_fputs 000C         ??_calculaTemperaturaSimples 0045  
                           ??_putch 0001                          __pbssBANK0 00C1  
                        __pbssBANK1 0100                      main@lcd_buffer 00A8  
                           ?___flge 0041                             ?___fleq 0001  
                           ?_efgtoa 004D                             ?_floorf 0028  
                           ?_memcpy 0001                             ?_strcpy 0001  
                         ?___xxtofl 0001                             __Hparam 0000  
                           __Lparam 0000           _calculaTemperaturaSimples 3458  
                           ___fladd 18AE                             ___fldiv 218A  
                           ___awdiv 305A                             ___flneg 38AA  
                           ___awmod 311C                             ___flmul 1D64  
                           ___flsub 36F0                             ___fltol 2D52  
                         ?_vfprintf 0093                        __psmallconst 0800  
                           __pcinit 36AA                             __ramtop 0800  
                           __ptext0 12D6                             __ptext1 3872  
                           __ptext2 377A                             __ptext3 251A  
                           __ptext4 331E                             __ptext5 0888  
                           __ptext6 3838                             __ptext7 365A  
                           __ptext8 35B2                             __ptext9 27DA  
                  ??_Inicializa_LCD 0003               read_prec_or_width@fmt 0001  
                        ??___xxtofl 0005                    ___awmod@dividend 0001  
                           efgtoa@c 0052                             efgtoa@d 006B  
                           efgtoa@e 006F                             efgtoa@f 004E  
                           efgtoa@g 0082                             efgtoa@h 0077  
                           efgtoa@i 007F                             efgtoa@l 007B  
                           efgtoa@m 006D                             efgtoa@n 0086  
                           efgtoa@p 0062                             efgtoa@t 0064  
                           efgtoa@u 0088                             efgtoa@w 0075  
                           _sprintf 3872                      __pintcode_body 3942  
                      ?_Comando_LCD 0001                end_of_initialization 36E2  
                           floorf@e 0036                             floorf@m 0032  
                           floorf@u 0038                             floorf@x 0028  
                           memcpy@d 0008                             memcpy@n 0005  
                           memcpy@s 000A                             fputc@fp 0003  
                     __Lmediumconst 0000                             int_func 3942  
                           fputs@fp 000B                  _read_prec_or_width 331E  
                 __end_of_setup_adc 396C                   __end_of_vfpfcnvrt 27DA  
                        efgtoa@mode 0069                          efgtoa@sign 0081  
                           postdec1 0FE5                             postdec2 0FDD  
               ?_read_prec_or_width 0001                    _read_adc_channel 3736  
                           postinc0 0FEE                             postinc1 0FE6  
                           postinc2 0FDE                    vfpfcnvrt@convarg 008D  
             __end_of_Escreve_C_LCD 3838                          ??_vfprintf 0059  
                           strcpy@d 0005                           _PORTCbits 0F82  
                         _PORTDbits 0F83                           _PORTEbits 0F84  
                       ___fladd@grs 0010                       ___xxtofl@sign 0009  
                         _TRISAbits 0F92                           _TRISBbits 0F93  
                         _TRISCbits 0F94                           _TRISDbits 0F95  
                    Posiciona_LCD@x 0005                        ?_Escreve_LCD 0003  
              ??_read_prec_or_width 0003                         ___fldiv@grs 0022  
                       ___fldiv@rem 001B                         ___flmul@grs 0036  
                    __end_of___flge 2F5C                      __end_of___fleq 3274  
                       vfpfcnvrt@ap 0057                         vfpfcnvrt@cp 0092  
                       vfpfcnvrt@fp 0055                      __end_of_efgtoa 12D6  
                    __end_of_floorf 29EC                      __end_of_memcpy 36AA  
                        floorf@F521 00C1                      __end_of_strcpy 3872  
               start_initialization 36AA                         __end_of_abs 3916  
                       __end_of_pad 3458                         __end_of_isr 395E  
             __end_of___fpclassifyf 305A                         vfprintf@fmt 0094  
                          ??___flge 0049                            ??___fleq 0009  
                          ??_efgtoa 0053                         __pdataBANK0 00D0  
                          ??_floorf 002C                            ??_memcpy 0007  
                          ??_strcpy 0004                           ___fladd@a 0005  
                         ___fladd@b 0001                           ___fldiv@a 0013  
                         ___fldiv@b 000F                           ___flmul@a 002C  
                         ___flmul@b 0028                           ___flsub@a 0045  
                         ___flsub@b 0041                       __pcstackBANK0 0060  
                       _alarme_leve 00CE                         _efgtoa$1341 0066  
                         _dtoa$1310 001A                           __pintcode 0008  
                          ?___fladd 0001                            ?___fldiv 000F  
                          ?___awdiv 0001                            ?___flneg 0001  
                          ?___awmod 0001                            ?___flmul 0028  
                          ?___flsub 0041                            ?___fltol 0001  
                       __smallconst 0800   __end_of_calculaTemperaturaSimples 34D4  
          __end_of_read_adc_channel 377A                            ?_sprintf 0096  
                          _LATCbits 0F8B                            _LATDbits 0F8C  
                          i2u471_40 3952                            i2u471_41 394E  
                     _Posiciona_LCD 34D4                           _setup_adc 395E  
                         _vfpfcnvrt 251A                          _ADCON0bits 0FC2  
                        vfpfcnvrt@c 0091                         _INTCON2bits 0FF1  
                         copy_data0 36BE                            __Hrparam 0000  
                         memcpy@tmp 0007                          vfprintf@ap 0095  
                          __Lrparam 0000                          vfprintf@fp 0093  
                    ?_Posiciona_LCD 0003                          ?_setup_adc 0001  
                        ?_vfpfcnvrt 0055                  ___fpclassifyf@F465 00C5  
                        sprintf@fmt 0097                            ___xxtofl 29EC  
                          __ptext10 2F5C                            __ptext11 2D52  
                          __ptext20 3274                            __ptext12 36F0  
                          __ptext21 3974                            __ptext13 18AE  
                          __ptext30 218A                            __ptext22 38E2  
                          __ptext14 38AA                            __ptext31 34D4  
                          __ptext23 311C                            __ptext15 2E58  
                          __ptext32 3608                            __ptext24 305A  
                          __ptext16 31CA                            __ptext33 3916  
                          __ptext25 395E                            __ptext17 2BA0  
                          __ptext34 3544                            __ptext26 3736  
                          __ptext18 33C2                            __ptext35 37FA  
                          __ptext27 3458                            __ptext19 37BA  
                          __ptext28 29EC                            __ptext29 1D64  
     calculaTemperaturaSimples@temp 0045                          strcpy@dest 0001  
                          efgtoa@fp 004D                            efgtoa@ne 0060  
                          efgtoa@pp 0068                            efgtoa@ou 0071  
                          isa$xinst 0000                            int$flags 005C  
                          _vfprintf 377A                     main@temperatura 00BB  
                        _INTCONbits 0FF2                            memcpy@d1 0001  
                          memcpy@s1 0003                            intlevel2 0000  
                         sprintf@ap 009C                           strcpy@src 0003  
                   ??_Posiciona_LCD 0004                         efgtoa@nmode 006A  
                       ??_setup_adc 0001                       _Escreve_C_LCD 37FA  
                       ??_vfpfcnvrt 0058                            sprintf@f 009D  
                          sprintf@s 0096                       ___fladd@signs 000D  
                     ??_Comando_LCD 0001                   ?_read_adc_channel 0001  
               Posiciona_LCD@coluna 0003                  ??_read_adc_channel 0003  
                      ___fladd@aexp 000E                        ___fladd@bexp 000F  
                Posiciona_LCD@linha 0004  
